ARM GAS  D:\DOCUME~1\admin\LOCALS~1\Temp\cc2ORgsL.s 			page 1


   1              		.syntax unified
   2              		.cpu cortex-m3
   3              		.fpu softvfp
   4              		.eabi_attribute 20, 1
   5              		.eabi_attribute 21, 1
   6              		.eabi_attribute 23, 3
   7              		.eabi_attribute 24, 1
   8              		.eabi_attribute 25, 1
   9              		.eabi_attribute 26, 1
  10              		.eabi_attribute 30, 1
  11              		.eabi_attribute 18, 4
  12              		.thumb
  13              		.file	"LCD_4bit.c"
  20 0000 00010000 		.text
  20      02006300 
  20      00000201 
  20      FB0E0D00 
  20      01010101 
  21              	.Ltext0:
  22              		.align	2
  23              		.thumb
  24              		.thumb_func
  25              		.type	delay, %function
  26              	delay:
  27              	.LFB2:
  28              		.file 1 "LCD_4bit.c"
   1:LCD_4bit.c    **** /*----------------------------------------------------------------------------
   2:LCD_4bit.c    ****  * Name:    LCD_4bit.c
   3:LCD_4bit.c    ****  * Purpose: Functions for 2 line 16 character Text LCD (4-bit interface)
   4:LCD_4bit.c    ****  *                connected on MCBSTM32 evaluation board 
   5:LCD_4bit.c    ****  * Version: V1.10
   6:LCD_4bit.c    ****  *----------------------------------------------------------------------------
   7:LCD_4bit.c    ****  * This file is part of the uVision/ARM development tools.
   8:LCD_4bit.c    ****  * This software may only be used under the terms of a valid, current,
   9:LCD_4bit.c    ****  * end user licence from KEIL for a compatible version of KEIL software
  10:LCD_4bit.c    ****  * development tools. Nothing else gives you the right to use this software.
  11:LCD_4bit.c    ****  *
  12:LCD_4bit.c    ****  * Copyright (c) 2005-2007 Keil Software. All rights reserved.
  13:LCD_4bit.c    ****  *---------------------------------------------------------------------------*/
  14:LCD_4bit.c    **** 
  15:LCD_4bit.c    **** #include <stm32f10x_lib.h>              /* STM32F10x Library Definitions      */
  16:LCD_4bit.c    **** 
  17:LCD_4bit.c    **** /*********************** Hardware specific configuration **********************/
  18:LCD_4bit.c    **** 
  19:LCD_4bit.c    **** /*------------------------- Speed dependant settings -------------------------*/
  20:LCD_4bit.c    **** 
  21:LCD_4bit.c    **** /* If processor works on high frequency delay has to be increased, it can be 
  22:LCD_4bit.c    ****    increased by factor 2^N by this constant                                   */
  23:LCD_4bit.c    **** #define DELAY_2N     0
  24:LCD_4bit.c    **** 
  25:LCD_4bit.c    **** /*------------------------- Text LCD size definitions ------------------------*/
ARM GAS  D:\DOCUME~1\admin\LOCALS~1\Temp\cc2ORgsL.s 			page 2


  26:LCD_4bit.c    **** 
  27:LCD_4bit.c    **** #define LineLen     16                  /* Width (in characters)              */
  28:LCD_4bit.c    **** #define NumLines     2                  /* Hight (in lines)                   */
  29:LCD_4bit.c    **** 
  30:LCD_4bit.c    **** /*-------------------- LCD interface hardware definitions --------------------*/
  31:LCD_4bit.c    **** 
  32:LCD_4bit.c    **** /* PINS: 
  33:LCD_4bit.c    ****    - DB4 = PC3
  34:LCD_4bit.c    ****    - DB5 = PC2
  35:LCD_4bit.c    ****    - DB6 = PC1
  36:LCD_4bit.c    ****    - DB7 = PC0
  37:LCD_4bit.c    ****    - E   = PC10
  38:LCD_4bit.c    ****    - RW  = PC11
  39:LCD_4bit.c    ****    - RS  = PC12                                                               */
  40:LCD_4bit.c    **** 
  41:LCD_4bit.c    **** #define PIN_E                 (   1 << 10)
  42:LCD_4bit.c    **** #define PIN_RW                (   1 << 11)
  43:LCD_4bit.c    **** #define PIN_RS                (   1 << 12)
  44:LCD_4bit.c    **** #define PINS_CTRL             (0x07 << 10)
  45:LCD_4bit.c    **** #define PINS_DATA             (0x0F <<  0)
  46:LCD_4bit.c    **** #define PINS_ALL              (PINS_CTRL | PINS_DATA)
  47:LCD_4bit.c    **** 
  48:LCD_4bit.c    **** const unsigned int SWAP_DATA[16] = { 0x0, 0x8, 0x4, 0xC, 0x2, 0xA, 0x6, 0xE, 
  49:LCD_4bit.c    ****                                      0x1, 0x9, 0x5, 0xD, 0x3, 0xB, 0x7, 0xF};
  50:LCD_4bit.c    **** 
  51:LCD_4bit.c    **** /* Enable Clock for peripheral driving LCD pins                               */
  52:LCD_4bit.c    **** #define LCD_CLOCK_EN         (RCC->APB2ENR |= (1 << 4)); // enable clock for GPIOC
  53:LCD_4bit.c    **** 
  54:LCD_4bit.c    **** /* pin E  setting to 0 or 1                                                   */
  55:LCD_4bit.c    **** #define LCD_E(x)              GPIOC->ODR = (GPIOC->ODR & ~PIN_E)  | (x ? PIN_E : 0);
  56:LCD_4bit.c    **** 
  57:LCD_4bit.c    **** /* pin RW setting to 0 or 1                                                   */
  58:LCD_4bit.c    **** #define LCD_RW(x)             GPIOC->ODR = (GPIOC->ODR & ~PIN_RW) | (x ? PIN_RW : 0);
  59:LCD_4bit.c    **** 
  60:LCD_4bit.c    **** /* pin RS setting to 0 or 1                                                   */
  61:LCD_4bit.c    **** #define LCD_RS(x)             GPIOC->ODR = (GPIOC->ODR & ~PIN_RS) | (x ? PIN_RS : 0);
  62:LCD_4bit.c    **** 
  63:LCD_4bit.c    **** /* Reading DATA pins                                                          */
  64:LCD_4bit.c    **** #define LCD_DATA_IN           SWAP_DATA[(((GPIOC->IDR & PINS_DATA) >> 0) & 0x0F)]
  65:LCD_4bit.c    **** 
  66:LCD_4bit.c    **** /* Writing value to DATA pins                                                 */
  67:LCD_4bit.c    **** #define LCD_DATA_OUT(x)       GPIOC->ODR = (GPIOC->ODR & ~PINS_DATA) | ((SWAP_DATA[x]) << 0);
  68:LCD_4bit.c    **** 
  69:LCD_4bit.c    **** /* Setting all pins to output mode                                            */
  70:LCD_4bit.c    **** #define LCD_ALL_DIR_OUT       GPIOC->CRL = (GPIOC->CRL & 0xFFFF0000) | 0x00003333; \
  71:LCD_4bit.c    ****                               GPIOC->CRH = (GPIOC->CRH & 0xFFF000FF) | 0x00033300;
  72:LCD_4bit.c    ****  
  73:LCD_4bit.c    **** /* Setting DATA pins to input mode                                            */
  74:LCD_4bit.c    **** #define LCD_DATA_DIR_IN       GPIOC->CRL = (GPIOC->CRL & 0xFFFF0000) | 0x00004444;
  75:LCD_4bit.c    **** 
  76:LCD_4bit.c    **** /* Setting DATA pins to output mode                                           */
  77:LCD_4bit.c    **** #define LCD_DATA_DIR_OUT      GPIOC->CRL = (GPIOC->CRL & 0xFFFF0000) | 0x00003333;
  78:LCD_4bit.c    **** 
  79:LCD_4bit.c    **** /******************************************************************************/
  80:LCD_4bit.c    **** 
  81:LCD_4bit.c    **** 
  82:LCD_4bit.c    **** /* 8 user defined characters to be loaded into CGRAM (used for bargraph)      */
ARM GAS  D:\DOCUME~1\admin\LOCALS~1\Temp\cc2ORgsL.s 			page 3


  83:LCD_4bit.c    **** const char UserFont[8][8] = {
  84:LCD_4bit.c    ****   { 0x00,0x00,0x00,0x00,0x00,0x00,0x00,0x00 },
  85:LCD_4bit.c    ****   { 0x10,0x10,0x10,0x10,0x10,0x10,0x10,0x10 },
  86:LCD_4bit.c    ****   { 0x18,0x18,0x18,0x18,0x18,0x18,0x18,0x18 },
  87:LCD_4bit.c    ****   { 0x1C,0x1C,0x1C,0x1C,0x1C,0x1C,0x1C,0x1C },
  88:LCD_4bit.c    ****   { 0x1E,0x1E,0x1E,0x1E,0x1E,0x1E,0x1E,0x1E },
  89:LCD_4bit.c    ****   { 0x1F,0x1F,0x1F,0x1F,0x1F,0x1F,0x1F,0x1F },
  90:LCD_4bit.c    ****   { 0x00,0x00,0x00,0x00,0x00,0x00,0x00,0x00 },
  91:LCD_4bit.c    ****   { 0x00,0x00,0x00,0x00,0x00,0x00,0x00,0x00 }
  92:LCD_4bit.c    **** };
  93:LCD_4bit.c    **** 
  94:LCD_4bit.c    **** 
  95:LCD_4bit.c    **** /************************ Global function definitions *************************/
  96:LCD_4bit.c    **** 
  97:LCD_4bit.c    **** 
  98:LCD_4bit.c    **** /*******************************************************************************
  99:LCD_4bit.c    **** * Delay in while loop cycles                                                   *
 100:LCD_4bit.c    **** *   Parameter:    cnt:    number of while cycles to delay                      *
 101:LCD_4bit.c    **** *   Return:                                                                    *
 102:LCD_4bit.c    **** *******************************************************************************/
 103:LCD_4bit.c    **** 
 104:LCD_4bit.c    **** static void delay (int cnt)
 105:LCD_4bit.c    **** {
  29              		.loc 1 105 0
  30              		@ args = 0, pretend = 0, frame = 0
  31              		@ frame_needed = 0, uses_anonymous_args = 0
  32              		@ link register save eliminated.
  33              	.LVL0:
 106:LCD_4bit.c    ****   cnt <<= DELAY_2N;
 107:LCD_4bit.c    **** 
 108:LCD_4bit.c    ****   while (cnt--);
 109:LCD_4bit.c    **** }
  34              		.loc 1 109 0
  35 0000 7047     		bx	lr
  36              	.LFE2:
  37              		.size	delay, .-delay
  38 0002 00BF     		.align	2
  39              		.thumb
  40              		.thumb_func
  41              		.type	wait_while_busy, %function
  42              	wait_while_busy:
  43              	.LFB4:
 110:LCD_4bit.c    **** 
 111:LCD_4bit.c    **** 
 112:LCD_4bit.c    **** /*******************************************************************************
 113:LCD_4bit.c    **** * Read status of LCD controller                                                *
 114:LCD_4bit.c    **** *   Parameter:    none                                                         *
 115:LCD_4bit.c    **** *   Return:       Status byte contains busy flag and address pointer           *
 116:LCD_4bit.c    **** *******************************************************************************/
 117:LCD_4bit.c    **** 
 118:LCD_4bit.c    **** static unsigned char lcd_read_status (void)
 119:LCD_4bit.c    **** {
 120:LCD_4bit.c    ****   unsigned char status;
 121:LCD_4bit.c    **** 
 122:LCD_4bit.c    ****   LCD_DATA_DIR_IN
 123:LCD_4bit.c    ****   LCD_RS(0)
 124:LCD_4bit.c    ****   LCD_RW(1)
ARM GAS  D:\DOCUME~1\admin\LOCALS~1\Temp\cc2ORgsL.s 			page 4


 125:LCD_4bit.c    ****   delay(10);
 126:LCD_4bit.c    ****   LCD_E(1)
 127:LCD_4bit.c    ****   delay(10);
 128:LCD_4bit.c    ****   status  = LCD_DATA_IN << 4;
 129:LCD_4bit.c    ****   LCD_E(0)
 130:LCD_4bit.c    ****   delay(10);
 131:LCD_4bit.c    ****   LCD_E(1)
 132:LCD_4bit.c    ****   delay(10);
 133:LCD_4bit.c    ****   status |= LCD_DATA_IN;
 134:LCD_4bit.c    ****   LCD_E(0)
 135:LCD_4bit.c    ****   LCD_DATA_DIR_OUT
 136:LCD_4bit.c    ****   return (status);
 137:LCD_4bit.c    **** }
 138:LCD_4bit.c    **** 
 139:LCD_4bit.c    **** 
 140:LCD_4bit.c    **** /*******************************************************************************
 141:LCD_4bit.c    **** * Wait until LCD controller busy flag is 0                                     *
 142:LCD_4bit.c    **** *   Parameter:                                                                 *
 143:LCD_4bit.c    **** *   Return:       Status byte of LCD controller (busy + address)               *
 144:LCD_4bit.c    **** *******************************************************************************/
 145:LCD_4bit.c    **** 
 146:LCD_4bit.c    **** static unsigned char wait_while_busy (void)
 147:LCD_4bit.c    **** {
  44              		.loc 1 147 0
  45              		@ args = 0, pretend = 0, frame = 0
  46              		@ frame_needed = 0, uses_anonymous_args = 0
  47 0004 2DE9F041 		push	{r4, r5, r6, r7, r8, lr}
  48              	.LCFI0:
  49              	.LBB4:
  50              	.LBB5:
  51              		.loc 1 122 0
  52 0008 41F20003 		movw	r3, #:lower16:1073811456
  53 000c 1D46     		mov	r5, r3
  54 000e C4F20105 		movt	r5, #:upper16:1073811456
  55 0012 40F20003 		movw	r3, #:lower16:-65536
  56 0016 CFF6FF73 		movt	r3, #:upper16:-65536
  57 001a 9846     		mov	r8, r3
  58              		.loc 1 125 0
  59 001c 4FF00A07 		mov	r7, #10
  60              		.loc 1 133 0
  61 0020 40F20006 		movw	r6, #:lower16:.LANCHOR0
  62 0024 C0F20006 		movt	r6, #:upper16:.LANCHOR0
  63              	.L4:
  64              		.loc 1 122 0
  65 0028 2B68     		ldr	r3, [r5, #0]
  66 002a 03EA0803 		and	r3, r3, r8
  67 002e 43F48843 		orr	r3, r3, #17408
  68 0032 43F04403 		orr	r3, r3, #68
  69 0036 2B60     		str	r3, [r5, #0]
  70              		.loc 1 123 0
  71 0038 EB68     		ldr	r3, [r5, #12]
  72 003a 23F48053 		bic	r3, r3, #4096
  73 003e EB60     		str	r3, [r5, #12]
  74              		.loc 1 124 0
  75 0040 EB68     		ldr	r3, [r5, #12]
  76 0042 43F40063 		orr	r3, r3, #2048
  77 0046 EB60     		str	r3, [r5, #12]
ARM GAS  D:\DOCUME~1\admin\LOCALS~1\Temp\cc2ORgsL.s 			page 5


  78              		.loc 1 125 0
  79 0048 3846     		mov	r0, r7
  80 004a FFF7D9FF 		bl	delay
  81              		.loc 1 126 0
  82 004e EB68     		ldr	r3, [r5, #12]
  83 0050 43F48063 		orr	r3, r3, #1024
  84 0054 EB60     		str	r3, [r5, #12]
  85              		.loc 1 127 0
  86 0056 3846     		mov	r0, r7
  87 0058 FFF7D2FF 		bl	delay
  88              		.loc 1 128 0
  89 005c AC68     		ldr	r4, [r5, #8]
  90              		.loc 1 129 0
  91 005e EB68     		ldr	r3, [r5, #12]
  92 0060 23F48063 		bic	r3, r3, #1024
  93 0064 EB60     		str	r3, [r5, #12]
  94              		.loc 1 130 0
  95 0066 3846     		mov	r0, r7
  96 0068 FFF7CAFF 		bl	delay
  97              		.loc 1 131 0
  98 006c EB68     		ldr	r3, [r5, #12]
  99 006e 43F48063 		orr	r3, r3, #1024
 100 0072 EB60     		str	r3, [r5, #12]
 101              		.loc 1 132 0
 102 0074 3846     		mov	r0, r7
 103 0076 FFF7C3FF 		bl	delay
 104              		.loc 1 133 0
 105 007a AB68     		ldr	r3, [r5, #8]
 106 007c 04F00F04 		and	r4, r4, #15
 107 0080 16F82420 		ldrb	r2, [r6, r4, lsl #2]	@ zero_extendqisi2
 108 0084 03F00F03 		and	r3, r3, #15
 109 0088 16F82330 		ldrb	r3, [r6, r3, lsl #2]	@ zero_extendqisi2
 110 008c 43EA0213 		orr	r3, r3, r2, lsl #4
 111 0090 D8B2     		uxtb	r0, r3
 112              	.LVL1:
 113              		.loc 1 134 0
 114 0092 EB68     		ldr	r3, [r5, #12]
 115 0094 23F48063 		bic	r3, r3, #1024
 116 0098 EB60     		str	r3, [r5, #12]
 117              		.loc 1 135 0
 118 009a 2B68     		ldr	r3, [r5, #0]
 119 009c 03EA0803 		and	r3, r3, r8
 120 00a0 43F44C53 		orr	r3, r3, #13056
 121 00a4 43F03303 		orr	r3, r3, #51
 122 00a8 2B60     		str	r3, [r5, #0]
 123              	.LBE5:
 124              	.LBE4:
 148:LCD_4bit.c    ****   unsigned char status;
 149:LCD_4bit.c    **** 
 150:LCD_4bit.c    ****   do  {
 151:LCD_4bit.c    ****     status = lcd_read_status();
 152:LCD_4bit.c    ****   }  while (status & 0x80);             /* Wait for busy flag                 */
 125              		.loc 1 152 0
 126 00aa 10F0800F 		tst	r0, #128
 127 00ae BBD1     		bne	.L4
 153:LCD_4bit.c    **** 
 154:LCD_4bit.c    ****   return (status);
ARM GAS  D:\DOCUME~1\admin\LOCALS~1\Temp\cc2ORgsL.s 			page 6


 155:LCD_4bit.c    **** }
 128              		.loc 1 155 0
 129 00b0 BDE8F081 		pop	{r4, r5, r6, r7, r8, pc}
 130              	.LFE4:
 131              		.size	wait_while_busy, .-wait_while_busy
 132              		.align	2
 133              		.global	lcd_write_4bit
 134              		.thumb
 135              		.thumb_func
 136              		.type	lcd_write_4bit, %function
 137              	lcd_write_4bit:
 138              	.LFB5:
 156:LCD_4bit.c    **** 
 157:LCD_4bit.c    **** 
 158:LCD_4bit.c    **** /*******************************************************************************
 159:LCD_4bit.c    **** * Write 4-bits to LCD controller                                               *
 160:LCD_4bit.c    **** *   Parameter:    c:      command to be written                                *
 161:LCD_4bit.c    **** *   Return:                                                                    *
 162:LCD_4bit.c    **** *******************************************************************************/
 163:LCD_4bit.c    **** 
 164:LCD_4bit.c    **** void lcd_write_4bit (unsigned char c)
 165:LCD_4bit.c    **** {
 139              		.loc 1 165 0
 140              		@ args = 0, pretend = 0, frame = 0
 141              		@ frame_needed = 0, uses_anonymous_args = 0
 142              	.LVL2:
 143 00b4 10B5     		push	{r4, lr}
 144              	.LCFI1:
 166:LCD_4bit.c    ****   LCD_RW(0)
 145              		.loc 1 166 0
 146 00b6 41F20004 		movw	r4, #:lower16:1073811456
 147 00ba C4F20104 		movt	r4, #:upper16:1073811456
 148 00be E368     		ldr	r3, [r4, #12]
 149 00c0 23F40063 		bic	r3, r3, #2048
 150 00c4 E360     		str	r3, [r4, #12]
 167:LCD_4bit.c    ****   LCD_E(1)
 151              		.loc 1 167 0
 152 00c6 E368     		ldr	r3, [r4, #12]
 153 00c8 43F48063 		orr	r3, r3, #1024
 154 00cc E360     		str	r3, [r4, #12]
 168:LCD_4bit.c    ****   LCD_DATA_OUT(c&0x0F)
 155              		.loc 1 168 0
 156 00ce E268     		ldr	r2, [r4, #12]
 157 00d0 40F20003 		movw	r3, #:lower16:.LANCHOR0
 158 00d4 C0F20003 		movt	r3, #:upper16:.LANCHOR0
 159 00d8 00F00F00 		and	r0, r0, #15
 160              	.LVL3:
 161 00dc 22F00F02 		bic	r2, r2, #15
 162 00e0 53F82030 		ldr	r3, [r3, r0, lsl #2]
 163 00e4 42EA0302 		orr	r2, r2, r3
 164 00e8 E260     		str	r2, [r4, #12]
 169:LCD_4bit.c    ****   delay(10);
 165              		.loc 1 169 0
 166 00ea 4FF00A00 		mov	r0, #10
 167 00ee FFF787FF 		bl	delay
 170:LCD_4bit.c    ****   LCD_E(0)
 168              		.loc 1 170 0
ARM GAS  D:\DOCUME~1\admin\LOCALS~1\Temp\cc2ORgsL.s 			page 7


 169 00f2 E368     		ldr	r3, [r4, #12]
 170 00f4 23F48063 		bic	r3, r3, #1024
 171 00f8 E360     		str	r3, [r4, #12]
 171:LCD_4bit.c    ****   delay(10);
 172              		.loc 1 171 0
 173 00fa 4FF00A00 		mov	r0, #10
 174 00fe FFF77FFF 		bl	delay
 172:LCD_4bit.c    **** }
 175              		.loc 1 172 0
 176 0102 10BD     		pop	{r4, pc}
 177              	.LFE5:
 178              		.size	lcd_write_4bit, .-lcd_write_4bit
 179              		.align	2
 180              		.global	lcd_write_cmd
 181              		.thumb
 182              		.thumb_func
 183              		.type	lcd_write_cmd, %function
 184              	lcd_write_cmd:
 185              	.LFB6:
 173:LCD_4bit.c    **** 
 174:LCD_4bit.c    **** 
 175:LCD_4bit.c    **** /*******************************************************************************
 176:LCD_4bit.c    **** * Write command to LCD controller                                              *
 177:LCD_4bit.c    **** *   Parameter:    c:      command to be written                                *
 178:LCD_4bit.c    **** *   Return:                                                                    *
 179:LCD_4bit.c    **** *******************************************************************************/
 180:LCD_4bit.c    **** 
 181:LCD_4bit.c    **** void lcd_write_cmd (unsigned char c)
 182:LCD_4bit.c    **** {
 186              		.loc 1 182 0
 187              		@ args = 0, pretend = 0, frame = 0
 188              		@ frame_needed = 0, uses_anonymous_args = 0
 189              	.LVL4:
 190 0104 10B5     		push	{r4, lr}
 191              	.LCFI2:
 192 0106 0446     		mov	r4, r0
 183:LCD_4bit.c    ****   wait_while_busy();
 193              		.loc 1 183 0
 194 0108 FFF77CFF 		bl	wait_while_busy
 195              	.LVL5:
 184:LCD_4bit.c    **** 
 185:LCD_4bit.c    ****   LCD_RS(0)
 196              		.loc 1 185 0
 197 010c 41F20002 		movw	r2, #:lower16:1073811456
 198 0110 C4F20102 		movt	r2, #:upper16:1073811456
 199 0114 D368     		ldr	r3, [r2, #12]
 200 0116 23F48053 		bic	r3, r3, #4096
 201 011a D360     		str	r3, [r2, #12]
 186:LCD_4bit.c    ****   lcd_write_4bit (c>>4);
 202              		.loc 1 186 0
 203 011c 4FEA1410 		lsr	r0, r4, #4
 204 0120 FFF7FEFF 		bl	lcd_write_4bit
 187:LCD_4bit.c    ****   lcd_write_4bit (c);
 205              		.loc 1 187 0
 206 0124 2046     		mov	r0, r4
 207 0126 FFF7FEFF 		bl	lcd_write_4bit
 188:LCD_4bit.c    **** }
ARM GAS  D:\DOCUME~1\admin\LOCALS~1\Temp\cc2ORgsL.s 			page 8


 208              		.loc 1 188 0
 209 012a 10BD     		pop	{r4, pc}
 210              	.LFE6:
 211              		.size	lcd_write_cmd, .-lcd_write_cmd
 212              		.align	2
 213              		.global	lcd_putchar
 214              		.thumb
 215              		.thumb_func
 216              		.type	lcd_putchar, %function
 217              	lcd_putchar:
 218              	.LFB8:
 189:LCD_4bit.c    **** 
 190:LCD_4bit.c    **** 
 191:LCD_4bit.c    **** /*******************************************************************************
 192:LCD_4bit.c    **** * Write data to LCD controller                                                 *
 193:LCD_4bit.c    **** *   Parameter:    c:      data to be written                                   *
 194:LCD_4bit.c    **** *   Return:                                                                    *
 195:LCD_4bit.c    **** *******************************************************************************/
 196:LCD_4bit.c    **** 
 197:LCD_4bit.c    **** static void lcd_write_data (unsigned char c)
 198:LCD_4bit.c    **** {
 199:LCD_4bit.c    ****   wait_while_busy();
 200:LCD_4bit.c    **** 
 201:LCD_4bit.c    ****   LCD_RS(1)
 202:LCD_4bit.c    ****   lcd_write_4bit (c>>4);
 203:LCD_4bit.c    ****   lcd_write_4bit (c);
 204:LCD_4bit.c    **** }
 205:LCD_4bit.c    **** 
 206:LCD_4bit.c    **** 
 207:LCD_4bit.c    **** /*******************************************************************************
 208:LCD_4bit.c    **** * Print Character to current cursor position                                   *
 209:LCD_4bit.c    **** *   Parameter:    c:      character to be printed                              *
 210:LCD_4bit.c    **** *   Return:                                                                    *
 211:LCD_4bit.c    **** *******************************************************************************/
 212:LCD_4bit.c    **** 
 213:LCD_4bit.c    **** void lcd_putchar (char c)
 214:LCD_4bit.c    **** { 
 219              		.loc 1 214 0
 220              		@ args = 0, pretend = 0, frame = 0
 221              		@ frame_needed = 0, uses_anonymous_args = 0
 222              	.LVL6:
 223 012c 10B5     		push	{r4, lr}
 224              	.LCFI3:
 225 012e 0446     		mov	r4, r0
 226              	.LBB8:
 227              	.LBB9:
 228              		.loc 1 199 0
 229 0130 FFF768FF 		bl	wait_while_busy
 230              	.LVL7:
 231              		.loc 1 201 0
 232 0134 41F20002 		movw	r2, #:lower16:1073811456
 233 0138 C4F20102 		movt	r2, #:upper16:1073811456
 234 013c D368     		ldr	r3, [r2, #12]
 235 013e 43F48053 		orr	r3, r3, #4096
 236 0142 D360     		str	r3, [r2, #12]
 237              		.loc 1 202 0
 238 0144 4FEA1410 		lsr	r0, r4, #4
ARM GAS  D:\DOCUME~1\admin\LOCALS~1\Temp\cc2ORgsL.s 			page 9


 239 0148 FFF7FEFF 		bl	lcd_write_4bit
 240              		.loc 1 203 0
 241 014c 2046     		mov	r0, r4
 242 014e FFF7FEFF 		bl	lcd_write_4bit
 243              	.LBE9:
 244              	.LBE8:
 215:LCD_4bit.c    ****   lcd_write_data (c);
 216:LCD_4bit.c    **** }
 245              		.loc 1 216 0
 246 0152 10BD     		pop	{r4, pc}
 247              	.LFE8:
 248              		.size	lcd_putchar, .-lcd_putchar
 249              		.align	2
 250              		.global	lcd_init
 251              		.thumb
 252              		.thumb_func
 253              		.type	lcd_init, %function
 254              	lcd_init:
 255              	.LFB9:
 217:LCD_4bit.c    **** 
 218:LCD_4bit.c    **** 
 219:LCD_4bit.c    **** /*******************************************************************************
 220:LCD_4bit.c    **** * Initialize the LCD controller                                                *
 221:LCD_4bit.c    **** *   Parameter:                                                                 *
 222:LCD_4bit.c    **** *   Return:                                                                    *
 223:LCD_4bit.c    **** *******************************************************************************/
 224:LCD_4bit.c    **** 
 225:LCD_4bit.c    **** void lcd_init (void)
 226:LCD_4bit.c    **** { 
 256              		.loc 1 226 0
 257              		@ args = 0, pretend = 0, frame = 0
 258              		@ frame_needed = 0, uses_anonymous_args = 0
 259 0154 70B5     		push	{r4, r5, r6, lr}
 260              	.LCFI4:
 227:LCD_4bit.c    ****   int i;
 228:LCD_4bit.c    ****   char const *p;
 229:LCD_4bit.c    **** 
 230:LCD_4bit.c    ****   LCD_CLOCK_EN                          /* Enable clock for peripheral        */
 261              		.loc 1 230 0
 262 0156 41F20002 		movw	r2, #:lower16:1073876992
 263 015a C4F20202 		movt	r2, #:upper16:1073876992
 264 015e 9369     		ldr	r3, [r2, #24]
 265 0160 43F01003 		orr	r3, r3, #16
 266 0164 9361     		str	r3, [r2, #24]
 231:LCD_4bit.c    **** 
 232:LCD_4bit.c    ****   /* Set all pins for LCD as outputs                                          */
 233:LCD_4bit.c    ****   LCD_ALL_DIR_OUT
 267              		.loc 1 233 0
 268 0166 41F20004 		movw	r4, #:lower16:1073811456
 269 016a C4F20104 		movt	r4, #:upper16:1073811456
 270 016e 2368     		ldr	r3, [r4, #0]
 271 0170 4FEA1343 		lsr	r3, r3, #16
 272 0174 4FEA0343 		lsl	r3, r3, #16
 273 0178 43F44C53 		orr	r3, r3, #13056
 274 017c 43F03303 		orr	r3, r3, #51
 275 0180 2360     		str	r3, [r4, #0]
 276 0182 6368     		ldr	r3, [r4, #4]
ARM GAS  D:\DOCUME~1\admin\LOCALS~1\Temp\cc2ORgsL.s 			page 10


 277 0184 23F47E23 		bic	r3, r3, #1040384
 278 0188 23F4F853 		bic	r3, r3, #7936
 279 018c 43F44C33 		orr	r3, r3, #208896
 280 0190 43F44073 		orr	r3, r3, #768
 281 0194 6360     		str	r3, [r4, #4]
 234:LCD_4bit.c    **** 
 235:LCD_4bit.c    ****   delay (15000);
 282              		.loc 1 235 0
 283 0196 43F69820 		movw	r0, #15000
 284 019a FFF731FF 		bl	delay
 236:LCD_4bit.c    ****   LCD_RS(0)
 285              		.loc 1 236 0
 286 019e E368     		ldr	r3, [r4, #12]
 287 01a0 23F48053 		bic	r3, r3, #4096
 288 01a4 E360     		str	r3, [r4, #12]
 237:LCD_4bit.c    ****   lcd_write_4bit (0x3);                 /* Select 4-bit interface             */
 289              		.loc 1 237 0
 290 01a6 4FF00300 		mov	r0, #3
 291 01aa FFF7FEFF 		bl	lcd_write_4bit
 238:LCD_4bit.c    ****   delay (4100);
 292              		.loc 1 238 0
 293 01ae 41F20400 		movw	r0, #4100
 294 01b2 FFF725FF 		bl	delay
 239:LCD_4bit.c    ****   lcd_write_4bit (0x3);
 295              		.loc 1 239 0
 296 01b6 4FF00300 		mov	r0, #3
 297 01ba FFF7FEFF 		bl	lcd_write_4bit
 240:LCD_4bit.c    ****   delay (100);
 298              		.loc 1 240 0
 299 01be 4FF06400 		mov	r0, #100
 300 01c2 FFF71DFF 		bl	delay
 241:LCD_4bit.c    ****   lcd_write_4bit (0x3);
 301              		.loc 1 241 0
 302 01c6 4FF00300 		mov	r0, #3
 303 01ca FFF7FEFF 		bl	lcd_write_4bit
 242:LCD_4bit.c    ****   lcd_write_4bit (0x2);
 304              		.loc 1 242 0
 305 01ce 4FF00200 		mov	r0, #2
 306 01d2 FFF7FEFF 		bl	lcd_write_4bit
 243:LCD_4bit.c    **** 
 244:LCD_4bit.c    ****   lcd_write_cmd (0x28);                 /* 2 lines, 5x8 character matrix      */
 307              		.loc 1 244 0
 308 01d6 4FF02800 		mov	r0, #40
 309 01da FFF7FEFF 		bl	lcd_write_cmd
 245:LCD_4bit.c    ****   lcd_write_cmd (0x0C);                 /* Display ctrl:Disp=ON,Curs/Blnk=OFF */
 310              		.loc 1 245 0
 311 01de 4FF00C00 		mov	r0, #12
 312 01e2 FFF7FEFF 		bl	lcd_write_cmd
 246:LCD_4bit.c    ****   lcd_write_cmd (0x06);                 /* Entry mode: Move right, no shift   */
 313              		.loc 1 246 0
 314 01e6 4FF00600 		mov	r0, #6
 315 01ea FFF7FEFF 		bl	lcd_write_cmd
 247:LCD_4bit.c    **** 
 248:LCD_4bit.c    ****   /* Load user-specific characters into CGRAM                                 */
 249:LCD_4bit.c    ****   lcd_write_cmd(0x40);                  /* Set CGRAM address counter to 0     */
 316              		.loc 1 249 0
 317 01ee 4FF04000 		mov	r0, #64
ARM GAS  D:\DOCUME~1\admin\LOCALS~1\Temp\cc2ORgsL.s 			page 11


 318 01f2 FFF7FEFF 		bl	lcd_write_cmd
 319 01f6 4FF00004 		mov	r4, #0
 320              	.LVL8:
 250:LCD_4bit.c    ****   p = &UserFont[0][0];
 251:LCD_4bit.c    ****   for (i = 0; i < sizeof(UserFont); i++, p++)
 252:LCD_4bit.c    ****     lcd_putchar (*p);
 321              		.loc 1 252 0
 322 01fa 40F20003 		movw	r3, #:lower16:.LANCHOR0
 323 01fe C0F20003 		movt	r3, #:upper16:.LANCHOR0
 324 0202 03F14005 		add	r5, r3, #64
 325              	.L14:
 326 0206 285D     		ldrb	r0, [r5, r4]	@ zero_extendqisi2
 327 0208 FFF7FEFF 		bl	lcd_putchar
 328              		.loc 1 251 0
 329 020c 04F10104 		add	r4, r4, #1
 330 0210 402C     		cmp	r4, #64
 331 0212 F8D1     		bne	.L14
 253:LCD_4bit.c    **** 
 254:LCD_4bit.c    ****   lcd_write_cmd(0x80);                  /* Set DDRAM address counter to 0     */
 332              		.loc 1 254 0
 333 0214 4FF08000 		mov	r0, #128
 334 0218 FFF7FEFF 		bl	lcd_write_cmd
 255:LCD_4bit.c    **** }
 335              		.loc 1 255 0
 336 021c 70BD     		pop	{r4, r5, r6, pc}
 337              	.LFE9:
 338              		.size	lcd_init, .-lcd_init
 339 021e 00BF     		.align	2
 340              		.global	set_cursor
 341              		.thumb
 342              		.thumb_func
 343              		.type	set_cursor, %function
 344              	set_cursor:
 345              	.LFB10:
 256:LCD_4bit.c    **** 
 257:LCD_4bit.c    **** 
 258:LCD_4bit.c    **** 
 259:LCD_4bit.c    **** /*******************************************************************************
 260:LCD_4bit.c    **** * Set cursor position on LCD display                                           *
 261:LCD_4bit.c    **** *   Parameter:    column: column position                                      *
 262:LCD_4bit.c    **** *                 line:   line position                                        *
 263:LCD_4bit.c    **** *   Return:                                                                    *
 264:LCD_4bit.c    **** *******************************************************************************/
 265:LCD_4bit.c    **** 
 266:LCD_4bit.c    **** void set_cursor (int column, int line)
 267:LCD_4bit.c    **** {
 346              		.loc 1 267 0
 347              		@ args = 0, pretend = 0, frame = 0
 348              		@ frame_needed = 0, uses_anonymous_args = 0
 349              	.LVL9:
 350 0220 10B5     		push	{r4, lr}
 351              	.LCFI5:
 268:LCD_4bit.c    ****   unsigned char address;
 269:LCD_4bit.c    **** 
 270:LCD_4bit.c    ****   address = (line * 40) + column;
 271:LCD_4bit.c    ****   address = 0x80 + (address & 0x7F);
 352              		.loc 1 271 0
ARM GAS  D:\DOCUME~1\admin\LOCALS~1\Temp\cc2ORgsL.s 			page 12


 353 0222 01EB8101 		add	r1, r1, r1, lsl #2
 354              	.LVL10:
 355 0226 00EBC100 		add	r0, r0, r1, lsl #3
 356              	.LVL11:
 357 022a 00F07F00 		and	r0, r0, #127
 272:LCD_4bit.c    ****   lcd_write_cmd(address);               /* Set DDRAM address counter to 0     */
 358              		.loc 1 272 0
 359 022e 40F08000 		orr	r0, r0, #128
 360 0232 FFF7FEFF 		bl	lcd_write_cmd
 273:LCD_4bit.c    **** }
 361              		.loc 1 273 0
 362 0236 10BD     		pop	{r4, pc}
 363              	.LFE10:
 364              		.size	set_cursor, .-set_cursor
 365              		.align	2
 366              		.global	lcd_clear
 367              		.thumb
 368              		.thumb_func
 369              		.type	lcd_clear, %function
 370              	lcd_clear:
 371              	.LFB11:
 274:LCD_4bit.c    **** 
 275:LCD_4bit.c    **** /*******************************************************************************
 276:LCD_4bit.c    **** * Clear the LCD display                                                        *
 277:LCD_4bit.c    **** *   Parameter:                                                                 *
 278:LCD_4bit.c    **** *   Return:                                                                    *
 279:LCD_4bit.c    **** *******************************************************************************/
 280:LCD_4bit.c    **** 
 281:LCD_4bit.c    **** void lcd_clear (void)
 282:LCD_4bit.c    **** {
 372              		.loc 1 282 0
 373              		@ args = 0, pretend = 0, frame = 0
 374              		@ frame_needed = 0, uses_anonymous_args = 0
 375 0238 10B5     		push	{r4, lr}
 376              	.LCFI6:
 283:LCD_4bit.c    ****   lcd_write_cmd(0x01);                  /* Display clear                      */
 377              		.loc 1 283 0
 378 023a 4FF00100 		mov	r0, #1
 379 023e FFF7FEFF 		bl	lcd_write_cmd
 284:LCD_4bit.c    ****   set_cursor (0, 0);
 380              		.loc 1 284 0
 381 0242 4FF00000 		mov	r0, #0
 382 0246 0146     		mov	r1, r0
 383 0248 FFF7FEFF 		bl	set_cursor
 285:LCD_4bit.c    **** }
 384              		.loc 1 285 0
 385 024c 10BD     		pop	{r4, pc}
 386              	.LFE11:
 387              		.size	lcd_clear, .-lcd_clear
 388 024e 00BF     		.align	2
 389              		.global	lcd_print
 390              		.thumb
 391              		.thumb_func
 392              		.type	lcd_print, %function
 393              	lcd_print:
 394              	.LFB12:
 286:LCD_4bit.c    **** 
ARM GAS  D:\DOCUME~1\admin\LOCALS~1\Temp\cc2ORgsL.s 			page 13


 287:LCD_4bit.c    **** 
 288:LCD_4bit.c    **** /*******************************************************************************
 289:LCD_4bit.c    **** * Print sting to LCD display                                                   *
 290:LCD_4bit.c    **** *   Parameter:    string: pointer to output string                             *
 291:LCD_4bit.c    **** *   Return:                                                                    *
 292:LCD_4bit.c    **** *******************************************************************************/
 293:LCD_4bit.c    **** 
 294:LCD_4bit.c    **** void lcd_print (char *string)
 295:LCD_4bit.c    **** {
 395              		.loc 1 295 0
 396              		@ args = 0, pretend = 0, frame = 0
 397              		@ frame_needed = 0, uses_anonymous_args = 0
 398              	.LVL12:
 399 0250 10B5     		push	{r4, lr}
 400              	.LCFI7:
 401 0252 0346     		mov	r3, r0
 296:LCD_4bit.c    ****   while (*string)  {
 402              		.loc 1 296 0
 403 0254 0078     		ldrb	r0, [r0, #0]	@ zero_extendqisi2
 404              	.LVL13:
 405 0256 30B1     		cbz	r0, .L24
 406 0258 1C46     		mov	r4, r3
 407              	.L23:
 297:LCD_4bit.c    ****     lcd_putchar (*string++);
 408              		.loc 1 297 0
 409 025a FFF7FEFF 		bl	lcd_putchar
 410              	.LVL14:
 411              		.loc 1 296 0
 412 025e 14F8010F 		ldrb	r0, [r4, #1]!	@ zero_extendqisi2
 413 0262 0028     		cmp	r0, #0
 414 0264 F9D1     		bne	.L23
 415              	.LVL15:
 416              	.L24:
 298:LCD_4bit.c    ****   }
 299:LCD_4bit.c    **** }
 417              		.loc 1 299 0
 418 0266 10BD     		pop	{r4, pc}
 419              	.LFE12:
 420              		.size	lcd_print, .-lcd_print
 421              		.align	2
 422              		.global	lcd_bargraph
 423              		.thumb
 424              		.thumb_func
 425              		.type	lcd_bargraph, %function
 426              	lcd_bargraph:
 427              	.LFB13:
 300:LCD_4bit.c    **** 
 301:LCD_4bit.c    **** 
 302:LCD_4bit.c    **** /*******************************************************************************
 303:LCD_4bit.c    **** * Print a bargraph to LCD display                                              *
 304:LCD_4bit.c    **** *   Parameter:     val:  value 0..100 %                                        *
 305:LCD_4bit.c    **** *                  size: size of bargraph 1..16                                *
 306:LCD_4bit.c    **** *   Return:                                                                    *
 307:LCD_4bit.c    **** *******************************************************************************/
 308:LCD_4bit.c    **** void lcd_bargraph (int value, int size) {
 428              		.loc 1 308 0
 429              		@ args = 0, pretend = 0, frame = 0
ARM GAS  D:\DOCUME~1\admin\LOCALS~1\Temp\cc2ORgsL.s 			page 14


 430              		@ frame_needed = 0, uses_anonymous_args = 0
 431              	.LVL16:
 432 0268 2DE9F041 		push	{r4, r5, r6, r7, r8, lr}
 433              	.LCFI8:
 309:LCD_4bit.c    ****    int i;
 310:LCD_4bit.c    **** 
 311:LCD_4bit.c    ****    value = value * size / 20;            /* Display matrix 5 x 8 pixels       */
 312:LCD_4bit.c    ****    for (i = 0; i < size; i++) {
 434              		.loc 1 312 0
 435 026c 0E1E     		subs	r6, r1, #0
 436 026e 10DC     		bgt	.L27
 437              	.LVL17:
 438 0270 21E0     		b	.L32
 439              	.LVL18:
 440              	.L30:
 313:LCD_4bit.c    ****       if (value > 5) {
 314:LCD_4bit.c    ****          lcd_putchar (0x05);
 315:LCD_4bit.c    ****          value -= 5;
 441              		.loc 1 315 0
 442 0272 A5F10505 		sub	r5, r5, #5
 443              		.loc 1 313 0
 444 0276 052D     		cmp	r5, #5
 445 0278 07DD     		ble	.L29
 446              	.L31:
 447              		.loc 1 314 0
 448 027a 3846     		mov	r0, r7
 449 027c FFF7FEFF 		bl	lcd_putchar
 450              		.loc 1 312 0
 451 0280 04F10104 		add	r4, r4, #1
 452 0284 A642     		cmp	r6, r4
 453 0286 F4DC     		bgt	.L30
 454 0288 15E0     		b	.L32
 455              	.L29:
 316:LCD_4bit.c    ****       }
 317:LCD_4bit.c    ****       else {
 318:LCD_4bit.c    ****          lcd_putchar (value);
 456              		.loc 1 318 0
 457 028a E8B2     		uxtb	r0, r5
 458 028c FFF7FEFF 		bl	lcd_putchar
 459 0290 11E0     		b	.L32
 460              	.LVL19:
 461              	.L27:
 462              		.loc 1 311 0
 463 0292 00FB06F2 		mul	r2, r0, r6
 464 0296 46F26763 		movw	r3, #:lower16:1717986919
 465 029a C6F26663 		movt	r3, #:upper16:1717986919
 466 029e 83FB0213 		smull	r1, r3, r3, r2
 467 02a2 4FEAE272 		asr	r2, r2, #31
 468 02a6 C2EBE305 		rsb	r5, r2, r3, asr #3
 469              	.LVL20:
 470              		.loc 1 313 0
 471 02aa 052D     		cmp	r5, #5
 472 02ac C4BF     		itt	gt
 473 02ae 0024     		movgt	r4, #0
 474              	.LVL21:
 475              		.loc 1 314 0
 476 02b0 0527     		movgt	r7, #5
ARM GAS  D:\DOCUME~1\admin\LOCALS~1\Temp\cc2ORgsL.s 			page 15


 477              		.loc 1 313 0
 478 02b2 E2DC     		bgt	.L31
 479 02b4 E9E7     		b	.L29
 480              	.LVL22:
 481              	.L32:
 319:LCD_4bit.c    ****          break;
 320:LCD_4bit.c    ****       }
 321:LCD_4bit.c    ****    }
 322:LCD_4bit.c    **** }
 482              		.loc 1 322 0
 483 02b6 BDE8F081 		pop	{r4, r5, r6, r7, r8, pc}
 484              	.LFE13:
 485              		.size	lcd_bargraph, .-lcd_bargraph
 486 02ba 00BF     		.align	2
 487              		.global	lcd_bargraphXY
 488              		.thumb
 489              		.thumb_func
 490              		.type	lcd_bargraphXY, %function
 491              	lcd_bargraphXY:
 492              	.LFB14:
 323:LCD_4bit.c    **** 
 324:LCD_4bit.c    **** 
 325:LCD_4bit.c    **** /*******************************************************************************
 326:LCD_4bit.c    **** * Display bargraph on LCD display                                              *
 327:LCD_4bit.c    **** *   Parameter:     pos_x: horizontal position of bargraph start                *
 328:LCD_4bit.c    **** *                  pos_y: vertical position of bargraph                        *
 329:LCD_4bit.c    **** *                  value: size of bargraph active field (in pixels)            *
 330:LCD_4bit.c    **** *   Return:                                                                    *
 331:LCD_4bit.c    **** *******************************************************************************/
 332:LCD_4bit.c    **** 
 333:LCD_4bit.c    **** void lcd_bargraphXY (int pos_x, int pos_y, int value) {
 493              		.loc 1 333 0
 494              		@ args = 0, pretend = 0, frame = 0
 495              		@ frame_needed = 0, uses_anonymous_args = 0
 496              	.LVL23:
 497 02bc 2DE9F041 		push	{r4, r5, r6, r7, r8, lr}
 498              	.LCFI9:
 499 02c0 1646     		mov	r6, r2
 334:LCD_4bit.c    ****   int i;
 335:LCD_4bit.c    **** 
 336:LCD_4bit.c    ****   set_cursor (pos_x, pos_y);
 500              		.loc 1 336 0
 501 02c2 FFF7FEFF 		bl	set_cursor
 502              	.LVL24:
 503 02c6 4FF00005 		mov	r5, #0
 504              	.LVL25:
 337:LCD_4bit.c    ****   for (i = 0; i < 16; i++)  {
 338:LCD_4bit.c    ****     if (value > 5) {
 339:LCD_4bit.c    ****       lcd_putchar (0x05);
 340:LCD_4bit.c    ****       value -= 5;
 341:LCD_4bit.c    ****     } else {
 342:LCD_4bit.c    ****       lcd_putchar (value);
 343:LCD_4bit.c    ****       while (i++ < 16) lcd_putchar (0);
 505              		.loc 1 343 0
 506 02ca 2F46     		mov	r7, r5
 507              		.loc 1 339 0
 508 02cc 4FF00508 		mov	r8, #5
ARM GAS  D:\DOCUME~1\admin\LOCALS~1\Temp\cc2ORgsL.s 			page 16


 509              	.L37:
 510              		.loc 1 338 0
 511 02d0 052E     		cmp	r6, #5
 512 02d2 05DD     		ble	.L34
 513              		.loc 1 339 0
 514 02d4 4046     		mov	r0, r8
 515 02d6 FFF7FEFF 		bl	lcd_putchar
 516              		.loc 1 340 0
 517 02da A6F10506 		sub	r6, r6, #5
 518 02de 0CE0     		b	.L35
 519              	.L34:
 520              		.loc 1 342 0
 521 02e0 F0B2     		uxtb	r0, r6
 522 02e2 FFF7FEFF 		bl	lcd_putchar
 523 02e6 2C46     		mov	r4, r5
 524              	.L36:
 525              		.loc 1 343 0
 526 02e8 3846     		mov	r0, r7
 527 02ea FFF7FEFF 		bl	lcd_putchar
 528 02ee 04F10205 		add	r5, r4, #2
 529 02f2 04F10104 		add	r4, r4, #1
 530 02f6 0F2C     		cmp	r4, #15
 531 02f8 F6DD     		ble	.L36
 532              	.L35:
 533              		.loc 1 337 0
 534 02fa 05F10105 		add	r5, r5, #1
 535 02fe 0F2D     		cmp	r5, #15
 536 0300 E6DD     		ble	.L37
 344:LCD_4bit.c    ****     }
 345:LCD_4bit.c    ****   }
 346:LCD_4bit.c    **** }
 537              		.loc 1 346 0
 538 0302 BDE8F081 		pop	{r4, r5, r6, r7, r8, pc}
 539              	.LFE14:
 540              		.size	lcd_bargraphXY, .-lcd_bargraphXY
 541              		.global	SWAP_DATA
 542              		.global	UserFont
 543              		.section	.rodata
 544              		.align	2
 545              		.set	.LANCHOR0,. + 0
 546              		.type	SWAP_DATA, %object
 547              		.size	SWAP_DATA, 64
 548              	SWAP_DATA:
 549 0000 00000000 		.word	0
 550 0004 08000000 		.word	8
 551 0008 04000000 		.word	4
 552 000c 0C000000 		.word	12
 553 0010 02000000 		.word	2
 554 0014 0A000000 		.word	10
 555 0018 06000000 		.word	6
 556 001c 0E000000 		.word	14
 557 0020 01000000 		.word	1
 558 0024 09000000 		.word	9
 559 0028 05000000 		.word	5
 560 002c 0D000000 		.word	13
 561 0030 03000000 		.word	3
 562 0034 0B000000 		.word	11
ARM GAS  D:\DOCUME~1\admin\LOCALS~1\Temp\cc2ORgsL.s 			page 17


 563 0038 07000000 		.word	7
 564 003c 0F000000 		.word	15
 565              		.type	UserFont, %object
 566              		.size	UserFont, 64
 567              	UserFont:
 568 0040 00       		.byte	0
 569 0041 00       		.byte	0
 570 0042 00       		.byte	0
 571 0043 00       		.byte	0
 572 0044 00       		.byte	0
 573 0045 00       		.byte	0
 574 0046 00       		.byte	0
 575 0047 00       		.byte	0
 576 0048 10       		.byte	16
 577 0049 10       		.byte	16
 578 004a 10       		.byte	16
 579 004b 10       		.byte	16
 580 004c 10       		.byte	16
 581 004d 10       		.byte	16
 582 004e 10       		.byte	16
 583 004f 10       		.byte	16
 584 0050 18       		.byte	24
 585 0051 18       		.byte	24
 586 0052 18       		.byte	24
 587 0053 18       		.byte	24
 588 0054 18       		.byte	24
 589 0055 18       		.byte	24
 590 0056 18       		.byte	24
 591 0057 18       		.byte	24
 592 0058 1C       		.byte	28
 593 0059 1C       		.byte	28
 594 005a 1C       		.byte	28
 595 005b 1C       		.byte	28
 596 005c 1C       		.byte	28
 597 005d 1C       		.byte	28
 598 005e 1C       		.byte	28
 599 005f 1C       		.byte	28
 600 0060 1E       		.byte	30
 601 0061 1E       		.byte	30
 602 0062 1E       		.byte	30
 603 0063 1E       		.byte	30
 604 0064 1E       		.byte	30
 605 0065 1E       		.byte	30
 606 0066 1E       		.byte	30
 607 0067 1E       		.byte	30
 608 0068 1F       		.byte	31
 609 0069 1F       		.byte	31
 610 006a 1F       		.byte	31
 611 006b 1F       		.byte	31
 612 006c 1F       		.byte	31
 613 006d 1F       		.byte	31
 614 006e 1F       		.byte	31
 615 006f 1F       		.byte	31
 616 0070 00       		.byte	0
 617 0071 00       		.byte	0
 618 0072 00       		.byte	0
 619 0073 00       		.byte	0
ARM GAS  D:\DOCUME~1\admin\LOCALS~1\Temp\cc2ORgsL.s 			page 18


 620 0074 00       		.byte	0
 621 0075 00       		.byte	0
 622 0076 00       		.byte	0
 623 0077 00       		.byte	0
 624 0078 00       		.byte	0
 625 0079 00       		.byte	0
 626 007a 00       		.byte	0
 627 007b 00       		.byte	0
 628 007c 00       		.byte	0
 629 007d 00       		.byte	0
 630 007e 00       		.byte	0
 631 007f 00       		.byte	0
 632              		.section	.debug_frame,"",%progbits
 633              	.Lframe0:
 634 0000 0C000000 		.4byte	.LECIE0-.LSCIE0
 635              	.LSCIE0:
 636 0004 FFFFFFFF 		.4byte	0xffffffff
 637 0008 01       		.byte	0x1
 638 0009 00       		.ascii	"\000"
 639 000a 01       		.uleb128 0x1
 640 000b 7C       		.sleb128 -4
 641 000c 0E       		.byte	0xe
 642 000d 0C       		.byte	0xc
 643 000e 0D       		.uleb128 0xd
 644 000f 00       		.uleb128 0x0
 645              		.align	2
 646              	.LECIE0:
 647              	.LSFDE0:
 648 0010 0C000000 		.4byte	.LEFDE0-.LASFDE0
 649              	.LASFDE0:
 650 0014 00000000 		.4byte	.Lframe0
 651 0018 00000000 		.4byte	.LFB2
 652 001c 02000000 		.4byte	.LFE2-.LFB2
 653              		.align	2
 654              	.LEFDE0:
 655              	.LSFDE2:
 656 0020 1C000000 		.4byte	.LEFDE2-.LASFDE2
 657              	.LASFDE2:
 658 0024 00000000 		.4byte	.Lframe0
 659 0028 04000000 		.4byte	.LFB4
 660 002c B0000000 		.4byte	.LFE4-.LFB4
 661 0030 44       		.byte	0x4
 662              		.4byte	.LCFI0-.LFB4
 663 0031 0E       		.byte	0xe
 664 0032 18       		.uleb128 0x18
 665 0033 8E       		.byte	0x8e
 666 0034 01       		.uleb128 0x1
 667 0035 88       		.byte	0x88
 668 0036 02       		.uleb128 0x2
 669 0037 87       		.byte	0x87
 670 0038 03       		.uleb128 0x3
 671 0039 86       		.byte	0x86
 672 003a 04       		.uleb128 0x4
 673 003b 85       		.byte	0x85
 674 003c 05       		.uleb128 0x5
 675 003d 84       		.byte	0x84
 676 003e 06       		.uleb128 0x6
ARM GAS  D:\DOCUME~1\admin\LOCALS~1\Temp\cc2ORgsL.s 			page 19


 677 003f 00       		.align	2
 678              	.LEFDE2:
 679              	.LSFDE4:
 680 0040 14000000 		.4byte	.LEFDE4-.LASFDE4
 681              	.LASFDE4:
 682 0044 00000000 		.4byte	.Lframe0
 683 0048 B4000000 		.4byte	.LFB5
 684 004c 50000000 		.4byte	.LFE5-.LFB5
 685 0050 42       		.byte	0x4
 686              		.4byte	.LCFI1-.LFB5
 687 0051 0E       		.byte	0xe
 688 0052 08       		.uleb128 0x8
 689 0053 8E       		.byte	0x8e
 690 0054 01       		.uleb128 0x1
 691 0055 84       		.byte	0x84
 692 0056 02       		.uleb128 0x2
 693 0057 00       		.align	2
 694              	.LEFDE4:
 695              	.LSFDE6:
 696 0058 14000000 		.4byte	.LEFDE6-.LASFDE6
 697              	.LASFDE6:
 698 005c 00000000 		.4byte	.Lframe0
 699 0060 04010000 		.4byte	.LFB6
 700 0064 28000000 		.4byte	.LFE6-.LFB6
 701 0068 42       		.byte	0x4
 702              		.4byte	.LCFI2-.LFB6
 703 0069 0E       		.byte	0xe
 704 006a 08       		.uleb128 0x8
 705 006b 8E       		.byte	0x8e
 706 006c 01       		.uleb128 0x1
 707 006d 84       		.byte	0x84
 708 006e 02       		.uleb128 0x2
 709 006f 00       		.align	2
 710              	.LEFDE6:
 711              	.LSFDE8:
 712 0070 14000000 		.4byte	.LEFDE8-.LASFDE8
 713              	.LASFDE8:
 714 0074 00000000 		.4byte	.Lframe0
 715 0078 2C010000 		.4byte	.LFB8
 716 007c 28000000 		.4byte	.LFE8-.LFB8
 717 0080 42       		.byte	0x4
 718              		.4byte	.LCFI3-.LFB8
 719 0081 0E       		.byte	0xe
 720 0082 08       		.uleb128 0x8
 721 0083 8E       		.byte	0x8e
 722 0084 01       		.uleb128 0x1
 723 0085 84       		.byte	0x84
 724 0086 02       		.uleb128 0x2
 725 0087 00       		.align	2
 726              	.LEFDE8:
 727              	.LSFDE10:
 728 0088 18000000 		.4byte	.LEFDE10-.LASFDE10
 729              	.LASFDE10:
 730 008c 00000000 		.4byte	.Lframe0
 731 0090 54010000 		.4byte	.LFB9
 732 0094 CA000000 		.4byte	.LFE9-.LFB9
 733 0098 42       		.byte	0x4
ARM GAS  D:\DOCUME~1\admin\LOCALS~1\Temp\cc2ORgsL.s 			page 20


 734              		.4byte	.LCFI4-.LFB9
 735 0099 0E       		.byte	0xe
 736 009a 10       		.uleb128 0x10
 737 009b 8E       		.byte	0x8e
 738 009c 01       		.uleb128 0x1
 739 009d 86       		.byte	0x86
 740 009e 02       		.uleb128 0x2
 741 009f 85       		.byte	0x85
 742 00a0 03       		.uleb128 0x3
 743 00a1 84       		.byte	0x84
 744 00a2 04       		.uleb128 0x4
 745 00a3 00       		.align	2
 746              	.LEFDE10:
 747              	.LSFDE12:
 748 00a4 14000000 		.4byte	.LEFDE12-.LASFDE12
 749              	.LASFDE12:
 750 00a8 00000000 		.4byte	.Lframe0
 751 00ac 20020000 		.4byte	.LFB10
 752 00b0 18000000 		.4byte	.LFE10-.LFB10
 753 00b4 42       		.byte	0x4
 754              		.4byte	.LCFI5-.LFB10
 755 00b5 0E       		.byte	0xe
 756 00b6 08       		.uleb128 0x8
 757 00b7 8E       		.byte	0x8e
 758 00b8 01       		.uleb128 0x1
 759 00b9 84       		.byte	0x84
 760 00ba 02       		.uleb128 0x2
 761 00bb 00       		.align	2
 762              	.LEFDE12:
 763              	.LSFDE14:
 764 00bc 14000000 		.4byte	.LEFDE14-.LASFDE14
 765              	.LASFDE14:
 766 00c0 00000000 		.4byte	.Lframe0
 767 00c4 38020000 		.4byte	.LFB11
 768 00c8 16000000 		.4byte	.LFE11-.LFB11
 769 00cc 42       		.byte	0x4
 770              		.4byte	.LCFI6-.LFB11
 771 00cd 0E       		.byte	0xe
 772 00ce 08       		.uleb128 0x8
 773 00cf 8E       		.byte	0x8e
 774 00d0 01       		.uleb128 0x1
 775 00d1 84       		.byte	0x84
 776 00d2 02       		.uleb128 0x2
 777 00d3 00       		.align	2
 778              	.LEFDE14:
 779              	.LSFDE16:
 780 00d4 14000000 		.4byte	.LEFDE16-.LASFDE16
 781              	.LASFDE16:
 782 00d8 00000000 		.4byte	.Lframe0
 783 00dc 50020000 		.4byte	.LFB12
 784 00e0 18000000 		.4byte	.LFE12-.LFB12
 785 00e4 42       		.byte	0x4
 786              		.4byte	.LCFI7-.LFB12
 787 00e5 0E       		.byte	0xe
 788 00e6 08       		.uleb128 0x8
 789 00e7 8E       		.byte	0x8e
 790 00e8 01       		.uleb128 0x1
ARM GAS  D:\DOCUME~1\admin\LOCALS~1\Temp\cc2ORgsL.s 			page 21


 791 00e9 84       		.byte	0x84
 792 00ea 02       		.uleb128 0x2
 793 00eb 00       		.align	2
 794              	.LEFDE16:
 795              	.LSFDE18:
 796 00ec 1C000000 		.4byte	.LEFDE18-.LASFDE18
 797              	.LASFDE18:
 798 00f0 00000000 		.4byte	.Lframe0
 799 00f4 68020000 		.4byte	.LFB13
 800 00f8 52000000 		.4byte	.LFE13-.LFB13
 801 00fc 44       		.byte	0x4
 802              		.4byte	.LCFI8-.LFB13
 803 00fd 0E       		.byte	0xe
 804 00fe 18       		.uleb128 0x18
 805 00ff 8E       		.byte	0x8e
 806 0100 01       		.uleb128 0x1
 807 0101 88       		.byte	0x88
 808 0102 02       		.uleb128 0x2
 809 0103 87       		.byte	0x87
 810 0104 03       		.uleb128 0x3
 811 0105 86       		.byte	0x86
 812 0106 04       		.uleb128 0x4
 813 0107 85       		.byte	0x85
 814 0108 05       		.uleb128 0x5
 815 0109 84       		.byte	0x84
 816 010a 06       		.uleb128 0x6
 817 010b 00       		.align	2
 818              	.LEFDE18:
 819              	.LSFDE20:
 820 010c 1C000000 		.4byte	.LEFDE20-.LASFDE20
 821              	.LASFDE20:
 822 0110 00000000 		.4byte	.Lframe0
 823 0114 BC020000 		.4byte	.LFB14
 824 0118 4A000000 		.4byte	.LFE14-.LFB14
 825 011c 44       		.byte	0x4
 826              		.4byte	.LCFI9-.LFB14
 827 011d 0E       		.byte	0xe
 828 011e 18       		.uleb128 0x18
 829 011f 8E       		.byte	0x8e
 830 0120 01       		.uleb128 0x1
 831 0121 88       		.byte	0x88
 832 0122 02       		.uleb128 0x2
 833 0123 87       		.byte	0x87
 834 0124 03       		.uleb128 0x3
 835 0125 86       		.byte	0x86
 836 0126 04       		.uleb128 0x4
 837 0127 85       		.byte	0x85
 838 0128 05       		.uleb128 0x5
 839 0129 84       		.byte	0x84
 840 012a 06       		.uleb128 0x6
 841 012b 00       		.align	2
 842              	.LEFDE20:
 843              		.text
 844              	.Letext0: