ARM GAS  D:\DOCUME~1\admin\LOCALS~1\Temp\cc2ORgsL.s 			page 1


   1              		.syntax unified
   2              		.cpu cortex-m3
   3              		.fpu softvfp
   4              		.eabi_attribute 20, 1
   5              		.eabi_attribute 21, 1
   6              		.eabi_attribute 23, 3
   7              		.eabi_attribute 24, 1
   8              		.eabi_attribute 25, 1
   9              		.eabi_attribute 26, 1
  10              		.eabi_attribute 30, 1
  11              		.eabi_attribute 18, 4
  12              		.thumb
  13              		.file	"LCD_4bit.c"
  14              		.section	.debug_abbrev,"",%progbits
  15              	.Ldebug_abbrev0:
  16              		.section	.debug_info,"",%progbits
  17              	.Ldebug_info0:
  18              		.section	.debug_line,"",%progbits
  19              	.Ldebug_line0:
  20 0000 00010000 		.text
  20      02006300 
  20      00000201 
  20      FB0E0D00 
  20      01010101 
  21              	.Ltext0:
  22              		.align	2
  23              		.thumb
  24              		.thumb_func
  25              		.type	delay, %function
  26              	delay:
  27              	.LFB2:
  28              		.file 1 "LCD_4bit.c"
   1:LCD_4bit.c    **** /*----------------------------------------------------------------------------
   2:LCD_4bit.c    ****  * Name:    LCD_4bit.c
   3:LCD_4bit.c    ****  * Purpose: Functions for 2 line 16 character Text LCD (4-bit interface)
   4:LCD_4bit.c    ****  *                connected on MCBSTM32 evaluation board 
   5:LCD_4bit.c    ****  * Version: V1.10
   6:LCD_4bit.c    ****  *----------------------------------------------------------------------------
   7:LCD_4bit.c    ****  * This file is part of the uVision/ARM development tools.
   8:LCD_4bit.c    ****  * This software may only be used under the terms of a valid, current,
   9:LCD_4bit.c    ****  * end user licence from KEIL for a compatible version of KEIL software
  10:LCD_4bit.c    ****  * development tools. Nothing else gives you the right to use this software.
  11:LCD_4bit.c    ****  *
  12:LCD_4bit.c    ****  * Copyright (c) 2005-2007 Keil Software. All rights reserved.
  13:LCD_4bit.c    ****  *---------------------------------------------------------------------------*/
  14:LCD_4bit.c    **** 
  15:LCD_4bit.c    **** #include <stm32f10x_lib.h>              /* STM32F10x Library Definitions      */
  16:LCD_4bit.c    **** 
  17:LCD_4bit.c    **** /*********************** Hardware specific configuration **********************/
  18:LCD_4bit.c    **** 
  19:LCD_4bit.c    **** /*------------------------- Speed dependant settings -------------------------*/
  20:LCD_4bit.c    **** 
  21:LCD_4bit.c    **** /* If processor works on high frequency delay has to be increased, it can be 
  22:LCD_4bit.c    ****    increased by factor 2^N by this constant                                   */
  23:LCD_4bit.c    **** #define DELAY_2N     0
  24:LCD_4bit.c    **** 
  25:LCD_4bit.c    **** /*------------------------- Text LCD size definitions ------------------------*/
ARM GAS  D:\DOCUME~1\admin\LOCALS~1\Temp\cc2ORgsL.s 			page 2


  26:LCD_4bit.c    **** 
  27:LCD_4bit.c    **** #define LineLen     16                  /* Width (in characters)              */
  28:LCD_4bit.c    **** #define NumLines     2                  /* Hight (in lines)                   */
  29:LCD_4bit.c    **** 
  30:LCD_4bit.c    **** /*-------------------- LCD interface hardware definitions --------------------*/
  31:LCD_4bit.c    **** 
  32:LCD_4bit.c    **** /* PINS: 
  33:LCD_4bit.c    ****    - DB4 = PC3
  34:LCD_4bit.c    ****    - DB5 = PC2
  35:LCD_4bit.c    ****    - DB6 = PC1
  36:LCD_4bit.c    ****    - DB7 = PC0
  37:LCD_4bit.c    ****    - E   = PC10
  38:LCD_4bit.c    ****    - RW  = PC11
  39:LCD_4bit.c    ****    - RS  = PC12                                                               */
  40:LCD_4bit.c    **** 
  41:LCD_4bit.c    **** #define PIN_E                 (   1 << 10)
  42:LCD_4bit.c    **** #define PIN_RW                (   1 << 11)
  43:LCD_4bit.c    **** #define PIN_RS                (   1 << 12)
  44:LCD_4bit.c    **** #define PINS_CTRL             (0x07 << 10)
  45:LCD_4bit.c    **** #define PINS_DATA             (0x0F <<  0)
  46:LCD_4bit.c    **** #define PINS_ALL              (PINS_CTRL | PINS_DATA)
  47:LCD_4bit.c    **** 
  48:LCD_4bit.c    **** const unsigned int SWAP_DATA[16] = { 0x0, 0x8, 0x4, 0xC, 0x2, 0xA, 0x6, 0xE, 
  49:LCD_4bit.c    ****                                      0x1, 0x9, 0x5, 0xD, 0x3, 0xB, 0x7, 0xF};
  50:LCD_4bit.c    **** 
  51:LCD_4bit.c    **** /* Enable Clock for peripheral driving LCD pins                               */
  52:LCD_4bit.c    **** #define LCD_CLOCK_EN         (RCC->APB2ENR |= (1 << 4)); // enable clock for GPIOC
  53:LCD_4bit.c    **** 
  54:LCD_4bit.c    **** /* pin E  setting to 0 or 1                                                   */
  55:LCD_4bit.c    **** #define LCD_E(x)              GPIOC->ODR = (GPIOC->ODR & ~PIN_E)  | (x ? PIN_E : 0);
  56:LCD_4bit.c    **** 
  57:LCD_4bit.c    **** /* pin RW setting to 0 or 1                                                   */
  58:LCD_4bit.c    **** #define LCD_RW(x)             GPIOC->ODR = (GPIOC->ODR & ~PIN_RW) | (x ? PIN_RW : 0);
  59:LCD_4bit.c    **** 
  60:LCD_4bit.c    **** /* pin RS setting to 0 or 1                                                   */
  61:LCD_4bit.c    **** #define LCD_RS(x)             GPIOC->ODR = (GPIOC->ODR & ~PIN_RS) | (x ? PIN_RS : 0);
  62:LCD_4bit.c    **** 
  63:LCD_4bit.c    **** /* Reading DATA pins                                                          */
  64:LCD_4bit.c    **** #define LCD_DATA_IN           SWAP_DATA[(((GPIOC->IDR & PINS_DATA) >> 0) & 0x0F)]
  65:LCD_4bit.c    **** 
  66:LCD_4bit.c    **** /* Writing value to DATA pins                                                 */
  67:LCD_4bit.c    **** #define LCD_DATA_OUT(x)       GPIOC->ODR = (GPIOC->ODR & ~PINS_DATA) | ((SWAP_DATA[x]) << 0);
  68:LCD_4bit.c    **** 
  69:LCD_4bit.c    **** /* Setting all pins to output mode                                            */
  70:LCD_4bit.c    **** #define LCD_ALL_DIR_OUT       GPIOC->CRL = (GPIOC->CRL & 0xFFFF0000) | 0x00003333; \
  71:LCD_4bit.c    ****                               GPIOC->CRH = (GPIOC->CRH & 0xFFF000FF) | 0x00033300;
  72:LCD_4bit.c    ****  
  73:LCD_4bit.c    **** /* Setting DATA pins to input mode                                            */
  74:LCD_4bit.c    **** #define LCD_DATA_DIR_IN       GPIOC->CRL = (GPIOC->CRL & 0xFFFF0000) | 0x00004444;
  75:LCD_4bit.c    **** 
  76:LCD_4bit.c    **** /* Setting DATA pins to output mode                                           */
  77:LCD_4bit.c    **** #define LCD_DATA_DIR_OUT      GPIOC->CRL = (GPIOC->CRL & 0xFFFF0000) | 0x00003333;
  78:LCD_4bit.c    **** 
  79:LCD_4bit.c    **** /******************************************************************************/
  80:LCD_4bit.c    **** 
  81:LCD_4bit.c    **** 
  82:LCD_4bit.c    **** /* 8 user defined characters to be loaded into CGRAM (used for bargraph)      */
ARM GAS  D:\DOCUME~1\admin\LOCALS~1\Temp\cc2ORgsL.s 			page 3


  83:LCD_4bit.c    **** const char UserFont[8][8] = {
  84:LCD_4bit.c    ****   { 0x00,0x00,0x00,0x00,0x00,0x00,0x00,0x00 },
  85:LCD_4bit.c    ****   { 0x10,0x10,0x10,0x10,0x10,0x10,0x10,0x10 },
  86:LCD_4bit.c    ****   { 0x18,0x18,0x18,0x18,0x18,0x18,0x18,0x18 },
  87:LCD_4bit.c    ****   { 0x1C,0x1C,0x1C,0x1C,0x1C,0x1C,0x1C,0x1C },
  88:LCD_4bit.c    ****   { 0x1E,0x1E,0x1E,0x1E,0x1E,0x1E,0x1E,0x1E },
  89:LCD_4bit.c    ****   { 0x1F,0x1F,0x1F,0x1F,0x1F,0x1F,0x1F,0x1F },
  90:LCD_4bit.c    ****   { 0x00,0x00,0x00,0x00,0x00,0x00,0x00,0x00 },
  91:LCD_4bit.c    ****   { 0x00,0x00,0x00,0x00,0x00,0x00,0x00,0x00 }
  92:LCD_4bit.c    **** };
  93:LCD_4bit.c    **** 
  94:LCD_4bit.c    **** 
  95:LCD_4bit.c    **** /************************ Global function definitions *************************/
  96:LCD_4bit.c    **** 
  97:LCD_4bit.c    **** 
  98:LCD_4bit.c    **** /*******************************************************************************
  99:LCD_4bit.c    **** * Delay in while loop cycles                                                   *
 100:LCD_4bit.c    **** *   Parameter:    cnt:    number of while cycles to delay                      *
 101:LCD_4bit.c    **** *   Return:                                                                    *
 102:LCD_4bit.c    **** *******************************************************************************/
 103:LCD_4bit.c    **** 
 104:LCD_4bit.c    **** static void delay (int cnt)
 105:LCD_4bit.c    **** {
  29              		.loc 1 105 0
  30              		@ args = 0, pretend = 0, frame = 0
  31              		@ frame_needed = 0, uses_anonymous_args = 0
  32              		@ link register save eliminated.
  33              	.LVL0:
 106:LCD_4bit.c    ****   cnt <<= DELAY_2N;
 107:LCD_4bit.c    **** 
 108:LCD_4bit.c    ****   while (cnt--);
 109:LCD_4bit.c    **** }
  34              		.loc 1 109 0
  35 0000 7047     		bx	lr
  36              	.LFE2:
  37              		.size	delay, .-delay
  38 0002 00BF     		.align	2
  39              		.thumb
  40              		.thumb_func
  41              		.type	wait_while_busy, %function
  42              	wait_while_busy:
  43              	.LFB4:
 110:LCD_4bit.c    **** 
 111:LCD_4bit.c    **** 
 112:LCD_4bit.c    **** /*******************************************************************************
 113:LCD_4bit.c    **** * Read status of LCD controller                                                *
 114:LCD_4bit.c    **** *   Parameter:    none                                                         *
 115:LCD_4bit.c    **** *   Return:       Status byte contains busy flag and address pointer           *
 116:LCD_4bit.c    **** *******************************************************************************/
 117:LCD_4bit.c    **** 
 118:LCD_4bit.c    **** static unsigned char lcd_read_status (void)
 119:LCD_4bit.c    **** {
 120:LCD_4bit.c    ****   unsigned char status;
 121:LCD_4bit.c    **** 
 122:LCD_4bit.c    ****   LCD_DATA_DIR_IN
 123:LCD_4bit.c    ****   LCD_RS(0)
 124:LCD_4bit.c    ****   LCD_RW(1)
ARM GAS  D:\DOCUME~1\admin\LOCALS~1\Temp\cc2ORgsL.s 			page 4


 125:LCD_4bit.c    ****   delay(10);
 126:LCD_4bit.c    ****   LCD_E(1)
 127:LCD_4bit.c    ****   delay(10);
 128:LCD_4bit.c    ****   status  = LCD_DATA_IN << 4;
 129:LCD_4bit.c    ****   LCD_E(0)
 130:LCD_4bit.c    ****   delay(10);
 131:LCD_4bit.c    ****   LCD_E(1)
 132:LCD_4bit.c    ****   delay(10);
 133:LCD_4bit.c    ****   status |= LCD_DATA_IN;
 134:LCD_4bit.c    ****   LCD_E(0)
 135:LCD_4bit.c    ****   LCD_DATA_DIR_OUT
 136:LCD_4bit.c    ****   return (status);
 137:LCD_4bit.c    **** }
 138:LCD_4bit.c    **** 
 139:LCD_4bit.c    **** 
 140:LCD_4bit.c    **** /*******************************************************************************
 141:LCD_4bit.c    **** * Wait until LCD controller busy flag is 0                                     *
 142:LCD_4bit.c    **** *   Parameter:                                                                 *
 143:LCD_4bit.c    **** *   Return:       Status byte of LCD controller (busy + address)               *
 144:LCD_4bit.c    **** *******************************************************************************/
 145:LCD_4bit.c    **** 
 146:LCD_4bit.c    **** static unsigned char wait_while_busy (void)
 147:LCD_4bit.c    **** {
  44              		.loc 1 147 0
  45              		@ args = 0, pretend = 0, frame = 0
  46              		@ frame_needed = 0, uses_anonymous_args = 0
  47 0004 2DE9F041 		push	{r4, r5, r6, r7, r8, lr}
  48              	.LCFI0:
  49              	.LBB4:
  50              	.LBB5:
  51              		.loc 1 122 0
  52 0008 41F20003 		movw	r3, #:lower16:1073811456
  53 000c 1D46     		mov	r5, r3
  54 000e C4F20105 		movt	r5, #:upper16:1073811456
  55 0012 40F20003 		movw	r3, #:lower16:-65536
  56 0016 CFF6FF73 		movt	r3, #:upper16:-65536
  57 001a 9846     		mov	r8, r3
  58              		.loc 1 125 0
  59 001c 4FF00A07 		mov	r7, #10
  60              		.loc 1 133 0
  61 0020 40F20006 		movw	r6, #:lower16:.LANCHOR0
  62 0024 C0F20006 		movt	r6, #:upper16:.LANCHOR0
  63              	.L4:
  64              		.loc 1 122 0
  65 0028 2B68     		ldr	r3, [r5, #0]
  66 002a 03EA0803 		and	r3, r3, r8
  67 002e 43F48843 		orr	r3, r3, #17408
  68 0032 43F04403 		orr	r3, r3, #68
  69 0036 2B60     		str	r3, [r5, #0]
  70              		.loc 1 123 0
  71 0038 EB68     		ldr	r3, [r5, #12]
  72 003a 23F48053 		bic	r3, r3, #4096
  73 003e EB60     		str	r3, [r5, #12]
  74              		.loc 1 124 0
  75 0040 EB68     		ldr	r3, [r5, #12]
  76 0042 43F40063 		orr	r3, r3, #2048
  77 0046 EB60     		str	r3, [r5, #12]
ARM GAS  D:\DOCUME~1\admin\LOCALS~1\Temp\cc2ORgsL.s 			page 5


  78              		.loc 1 125 0
  79 0048 3846     		mov	r0, r7
  80 004a FFF7D9FF 		bl	delay
  81              		.loc 1 126 0
  82 004e EB68     		ldr	r3, [r5, #12]
  83 0050 43F48063 		orr	r3, r3, #1024
  84 0054 EB60     		str	r3, [r5, #12]
  85              		.loc 1 127 0
  86 0056 3846     		mov	r0, r7
  87 0058 FFF7D2FF 		bl	delay
  88              		.loc 1 128 0
  89 005c AC68     		ldr	r4, [r5, #8]
  90              		.loc 1 129 0
  91 005e EB68     		ldr	r3, [r5, #12]
  92 0060 23F48063 		bic	r3, r3, #1024
  93 0064 EB60     		str	r3, [r5, #12]
  94              		.loc 1 130 0
  95 0066 3846     		mov	r0, r7
  96 0068 FFF7CAFF 		bl	delay
  97              		.loc 1 131 0
  98 006c EB68     		ldr	r3, [r5, #12]
  99 006e 43F48063 		orr	r3, r3, #1024
 100 0072 EB60     		str	r3, [r5, #12]
 101              		.loc 1 132 0
 102 0074 3846     		mov	r0, r7
 103 0076 FFF7C3FF 		bl	delay
 104              		.loc 1 133 0
 105 007a AB68     		ldr	r3, [r5, #8]
 106 007c 04F00F04 		and	r4, r4, #15
 107 0080 16F82420 		ldrb	r2, [r6, r4, lsl #2]	@ zero_extendqisi2
 108 0084 03F00F03 		and	r3, r3, #15
 109 0088 16F82330 		ldrb	r3, [r6, r3, lsl #2]	@ zero_extendqisi2
 110 008c 43EA0213 		orr	r3, r3, r2, lsl #4
 111 0090 D8B2     		uxtb	r0, r3
 112              	.LVL1:
 113              		.loc 1 134 0
 114 0092 EB68     		ldr	r3, [r5, #12]
 115 0094 23F48063 		bic	r3, r3, #1024
 116 0098 EB60     		str	r3, [r5, #12]
 117              		.loc 1 135 0
 118 009a 2B68     		ldr	r3, [r5, #0]
 119 009c 03EA0803 		and	r3, r3, r8
 120 00a0 43F44C53 		orr	r3, r3, #13056
 121 00a4 43F03303 		orr	r3, r3, #51
 122 00a8 2B60     		str	r3, [r5, #0]
 123              	.LBE5:
 124              	.LBE4:
 148:LCD_4bit.c    ****   unsigned char status;
 149:LCD_4bit.c    **** 
 150:LCD_4bit.c    ****   do  {
 151:LCD_4bit.c    ****     status = lcd_read_status();
 152:LCD_4bit.c    ****   }  while (status & 0x80);             /* Wait for busy flag                 */
 125              		.loc 1 152 0
 126 00aa 10F0800F 		tst	r0, #128
 127 00ae BBD1     		bne	.L4
 153:LCD_4bit.c    **** 
 154:LCD_4bit.c    ****   return (status);
ARM GAS  D:\DOCUME~1\admin\LOCALS~1\Temp\cc2ORgsL.s 			page 6


 155:LCD_4bit.c    **** }
 128              		.loc 1 155 0
 129 00b0 BDE8F081 		pop	{r4, r5, r6, r7, r8, pc}
 130              	.LFE4:
 131              		.size	wait_while_busy, .-wait_while_busy
 132              		.align	2
 133              		.global	lcd_write_4bit
 134              		.thumb
 135              		.thumb_func
 136              		.type	lcd_write_4bit, %function
 137              	lcd_write_4bit:
 138              	.LFB5:
 156:LCD_4bit.c    **** 
 157:LCD_4bit.c    **** 
 158:LCD_4bit.c    **** /*******************************************************************************
 159:LCD_4bit.c    **** * Write 4-bits to LCD controller                                               *
 160:LCD_4bit.c    **** *   Parameter:    c:      command to be written                                *
 161:LCD_4bit.c    **** *   Return:                                                                    *
 162:LCD_4bit.c    **** *******************************************************************************/
 163:LCD_4bit.c    **** 
 164:LCD_4bit.c    **** void lcd_write_4bit (unsigned char c)
 165:LCD_4bit.c    **** {
 139              		.loc 1 165 0
 140              		@ args = 0, pretend = 0, frame = 0
 141              		@ frame_needed = 0, uses_anonymous_args = 0
 142              	.LVL2:
 143 00b4 10B5     		push	{r4, lr}
 144              	.LCFI1:
 166:LCD_4bit.c    ****   LCD_RW(0)
 145              		.loc 1 166 0
 146 00b6 41F20004 		movw	r4, #:lower16:1073811456
 147 00ba C4F20104 		movt	r4, #:upper16:1073811456
 148 00be E368     		ldr	r3, [r4, #12]
 149 00c0 23F40063 		bic	r3, r3, #2048
 150 00c4 E360     		str	r3, [r4, #12]
 167:LCD_4bit.c    ****   LCD_E(1)
 151              		.loc 1 167 0
 152 00c6 E368     		ldr	r3, [r4, #12]
 153 00c8 43F48063 		orr	r3, r3, #1024
 154 00cc E360     		str	r3, [r4, #12]
 168:LCD_4bit.c    ****   LCD_DATA_OUT(c&0x0F)
 155              		.loc 1 168 0
 156 00ce E268     		ldr	r2, [r4, #12]
 157 00d0 40F20003 		movw	r3, #:lower16:.LANCHOR0
 158 00d4 C0F20003 		movt	r3, #:upper16:.LANCHOR0
 159 00d8 00F00F00 		and	r0, r0, #15
 160              	.LVL3:
 161 00dc 22F00F02 		bic	r2, r2, #15
 162 00e0 53F82030 		ldr	r3, [r3, r0, lsl #2]
 163 00e4 42EA0302 		orr	r2, r2, r3
 164 00e8 E260     		str	r2, [r4, #12]
 169:LCD_4bit.c    ****   delay(10);
 165              		.loc 1 169 0
 166 00ea 4FF00A00 		mov	r0, #10
 167 00ee FFF787FF 		bl	delay
 170:LCD_4bit.c    ****   LCD_E(0)
 168              		.loc 1 170 0
ARM GAS  D:\DOCUME~1\admin\LOCALS~1\Temp\cc2ORgsL.s 			page 7


 169 00f2 E368     		ldr	r3, [r4, #12]
 170 00f4 23F48063 		bic	r3, r3, #1024
 171 00f8 E360     		str	r3, [r4, #12]
 171:LCD_4bit.c    ****   delay(10);
 172              		.loc 1 171 0
 173 00fa 4FF00A00 		mov	r0, #10
 174 00fe FFF77FFF 		bl	delay
 172:LCD_4bit.c    **** }
 175              		.loc 1 172 0
 176 0102 10BD     		pop	{r4, pc}
 177              	.LFE5:
 178              		.size	lcd_write_4bit, .-lcd_write_4bit
 179              		.align	2
 180              		.global	lcd_write_cmd
 181              		.thumb
 182              		.thumb_func
 183              		.type	lcd_write_cmd, %function
 184              	lcd_write_cmd:
 185              	.LFB6:
 173:LCD_4bit.c    **** 
 174:LCD_4bit.c    **** 
 175:LCD_4bit.c    **** /*******************************************************************************
 176:LCD_4bit.c    **** * Write command to LCD controller                                              *
 177:LCD_4bit.c    **** *   Parameter:    c:      command to be written                                *
 178:LCD_4bit.c    **** *   Return:                                                                    *
 179:LCD_4bit.c    **** *******************************************************************************/
 180:LCD_4bit.c    **** 
 181:LCD_4bit.c    **** void lcd_write_cmd (unsigned char c)
 182:LCD_4bit.c    **** {
 186              		.loc 1 182 0
 187              		@ args = 0, pretend = 0, frame = 0
 188              		@ frame_needed = 0, uses_anonymous_args = 0
 189              	.LVL4:
 190 0104 10B5     		push	{r4, lr}
 191              	.LCFI2:
 192 0106 0446     		mov	r4, r0
 183:LCD_4bit.c    ****   wait_while_busy();
 193              		.loc 1 183 0
 194 0108 FFF77CFF 		bl	wait_while_busy
 195              	.LVL5:
 184:LCD_4bit.c    **** 
 185:LCD_4bit.c    ****   LCD_RS(0)
 196              		.loc 1 185 0
 197 010c 41F20002 		movw	r2, #:lower16:1073811456
 198 0110 C4F20102 		movt	r2, #:upper16:1073811456
 199 0114 D368     		ldr	r3, [r2, #12]
 200 0116 23F48053 		bic	r3, r3, #4096
 201 011a D360     		str	r3, [r2, #12]
 186:LCD_4bit.c    ****   lcd_write_4bit (c>>4);
 202              		.loc 1 186 0
 203 011c 4FEA1410 		lsr	r0, r4, #4
 204 0120 FFF7FEFF 		bl	lcd_write_4bit
 187:LCD_4bit.c    ****   lcd_write_4bit (c);
 205              		.loc 1 187 0
 206 0124 2046     		mov	r0, r4
 207 0126 FFF7FEFF 		bl	lcd_write_4bit
 188:LCD_4bit.c    **** }
ARM GAS  D:\DOCUME~1\admin\LOCALS~1\Temp\cc2ORgsL.s 			page 8


 208              		.loc 1 188 0
 209 012a 10BD     		pop	{r4, pc}
 210              	.LFE6:
 211              		.size	lcd_write_cmd, .-lcd_write_cmd
 212              		.align	2
 213              		.global	lcd_putchar
 214              		.thumb
 215              		.thumb_func
 216              		.type	lcd_putchar, %function
 217              	lcd_putchar:
 218              	.LFB8:
 189:LCD_4bit.c    **** 
 190:LCD_4bit.c    **** 
 191:LCD_4bit.c    **** /*******************************************************************************
 192:LCD_4bit.c    **** * Write data to LCD controller                                                 *
 193:LCD_4bit.c    **** *   Parameter:    c:      data to be written                                   *
 194:LCD_4bit.c    **** *   Return:                                                                    *
 195:LCD_4bit.c    **** *******************************************************************************/
 196:LCD_4bit.c    **** 
 197:LCD_4bit.c    **** static void lcd_write_data (unsigned char c)
 198:LCD_4bit.c    **** {
 199:LCD_4bit.c    ****   wait_while_busy();
 200:LCD_4bit.c    **** 
 201:LCD_4bit.c    ****   LCD_RS(1)
 202:LCD_4bit.c    ****   lcd_write_4bit (c>>4);
 203:LCD_4bit.c    ****   lcd_write_4bit (c);
 204:LCD_4bit.c    **** }
 205:LCD_4bit.c    **** 
 206:LCD_4bit.c    **** 
 207:LCD_4bit.c    **** /*******************************************************************************
 208:LCD_4bit.c    **** * Print Character to current cursor position                                   *
 209:LCD_4bit.c    **** *   Parameter:    c:      character to be printed                              *
 210:LCD_4bit.c    **** *   Return:                                                                    *
 211:LCD_4bit.c    **** *******************************************************************************/
 212:LCD_4bit.c    **** 
 213:LCD_4bit.c    **** void lcd_putchar (char c)
 214:LCD_4bit.c    **** { 
 219              		.loc 1 214 0
 220              		@ args = 0, pretend = 0, frame = 0
 221              		@ frame_needed = 0, uses_anonymous_args = 0
 222              	.LVL6:
 223 012c 10B5     		push	{r4, lr}
 224              	.LCFI3:
 225 012e 0446     		mov	r4, r0
 226              	.LBB8:
 227              	.LBB9:
 228              		.loc 1 199 0
 229 0130 FFF768FF 		bl	wait_while_busy
 230              	.LVL7:
 231              		.loc 1 201 0
 232 0134 41F20002 		movw	r2, #:lower16:1073811456
 233 0138 C4F20102 		movt	r2, #:upper16:1073811456
 234 013c D368     		ldr	r3, [r2, #12]
 235 013e 43F48053 		orr	r3, r3, #4096
 236 0142 D360     		str	r3, [r2, #12]
 237              		.loc 1 202 0
 238 0144 4FEA1410 		lsr	r0, r4, #4
ARM GAS  D:\DOCUME~1\admin\LOCALS~1\Temp\cc2ORgsL.s 			page 9


 239 0148 FFF7FEFF 		bl	lcd_write_4bit
 240              		.loc 1 203 0
 241 014c 2046     		mov	r0, r4
 242 014e FFF7FEFF 		bl	lcd_write_4bit
 243              	.LBE9:
 244              	.LBE8:
 215:LCD_4bit.c    ****   lcd_write_data (c);
 216:LCD_4bit.c    **** }
 245              		.loc 1 216 0
 246 0152 10BD     		pop	{r4, pc}
 247              	.LFE8:
 248              		.size	lcd_putchar, .-lcd_putchar
 249              		.align	2
 250              		.global	lcd_init
 251              		.thumb
 252              		.thumb_func
 253              		.type	lcd_init, %function
 254              	lcd_init:
 255              	.LFB9:
 217:LCD_4bit.c    **** 
 218:LCD_4bit.c    **** 
 219:LCD_4bit.c    **** /*******************************************************************************
 220:LCD_4bit.c    **** * Initialize the LCD controller                                                *
 221:LCD_4bit.c    **** *   Parameter:                                                                 *
 222:LCD_4bit.c    **** *   Return:                                                                    *
 223:LCD_4bit.c    **** *******************************************************************************/
 224:LCD_4bit.c    **** 
 225:LCD_4bit.c    **** void lcd_init (void)
 226:LCD_4bit.c    **** { 
 256              		.loc 1 226 0
 257              		@ args = 0, pretend = 0, frame = 0
 258              		@ frame_needed = 0, uses_anonymous_args = 0
 259 0154 70B5     		push	{r4, r5, r6, lr}
 260              	.LCFI4:
 227:LCD_4bit.c    ****   int i;
 228:LCD_4bit.c    ****   char const *p;
 229:LCD_4bit.c    **** 
 230:LCD_4bit.c    ****   LCD_CLOCK_EN                          /* Enable clock for peripheral        */
 261              		.loc 1 230 0
 262 0156 41F20002 		movw	r2, #:lower16:1073876992
 263 015a C4F20202 		movt	r2, #:upper16:1073876992
 264 015e 9369     		ldr	r3, [r2, #24]
 265 0160 43F01003 		orr	r3, r3, #16
 266 0164 9361     		str	r3, [r2, #24]
 231:LCD_4bit.c    **** 
 232:LCD_4bit.c    ****   /* Set all pins for LCD as outputs                                          */
 233:LCD_4bit.c    ****   LCD_ALL_DIR_OUT
 267              		.loc 1 233 0
 268 0166 41F20004 		movw	r4, #:lower16:1073811456
 269 016a C4F20104 		movt	r4, #:upper16:1073811456
 270 016e 2368     		ldr	r3, [r4, #0]
 271 0170 4FEA1343 		lsr	r3, r3, #16
 272 0174 4FEA0343 		lsl	r3, r3, #16
 273 0178 43F44C53 		orr	r3, r3, #13056
 274 017c 43F03303 		orr	r3, r3, #51
 275 0180 2360     		str	r3, [r4, #0]
 276 0182 6368     		ldr	r3, [r4, #4]
ARM GAS  D:\DOCUME~1\admin\LOCALS~1\Temp\cc2ORgsL.s 			page 10


 277 0184 23F47E23 		bic	r3, r3, #1040384
 278 0188 23F4F853 		bic	r3, r3, #7936
 279 018c 43F44C33 		orr	r3, r3, #208896
 280 0190 43F44073 		orr	r3, r3, #768
 281 0194 6360     		str	r3, [r4, #4]
 234:LCD_4bit.c    **** 
 235:LCD_4bit.c    ****   delay (15000);
 282              		.loc 1 235 0
 283 0196 43F69820 		movw	r0, #15000
 284 019a FFF731FF 		bl	delay
 236:LCD_4bit.c    ****   LCD_RS(0)
 285              		.loc 1 236 0
 286 019e E368     		ldr	r3, [r4, #12]
 287 01a0 23F48053 		bic	r3, r3, #4096
 288 01a4 E360     		str	r3, [r4, #12]
 237:LCD_4bit.c    ****   lcd_write_4bit (0x3);                 /* Select 4-bit interface             */
 289              		.loc 1 237 0
 290 01a6 4FF00300 		mov	r0, #3
 291 01aa FFF7FEFF 		bl	lcd_write_4bit
 238:LCD_4bit.c    ****   delay (4100);
 292              		.loc 1 238 0
 293 01ae 41F20400 		movw	r0, #4100
 294 01b2 FFF725FF 		bl	delay
 239:LCD_4bit.c    ****   lcd_write_4bit (0x3);
 295              		.loc 1 239 0
 296 01b6 4FF00300 		mov	r0, #3
 297 01ba FFF7FEFF 		bl	lcd_write_4bit
 240:LCD_4bit.c    ****   delay (100);
 298              		.loc 1 240 0
 299 01be 4FF06400 		mov	r0, #100
 300 01c2 FFF71DFF 		bl	delay
 241:LCD_4bit.c    ****   lcd_write_4bit (0x3);
 301              		.loc 1 241 0
 302 01c6 4FF00300 		mov	r0, #3
 303 01ca FFF7FEFF 		bl	lcd_write_4bit
 242:LCD_4bit.c    ****   lcd_write_4bit (0x2);
 304              		.loc 1 242 0
 305 01ce 4FF00200 		mov	r0, #2
 306 01d2 FFF7FEFF 		bl	lcd_write_4bit
 243:LCD_4bit.c    **** 
 244:LCD_4bit.c    ****   lcd_write_cmd (0x28);                 /* 2 lines, 5x8 character matrix      */
 307              		.loc 1 244 0
 308 01d6 4FF02800 		mov	r0, #40
 309 01da FFF7FEFF 		bl	lcd_write_cmd
 245:LCD_4bit.c    ****   lcd_write_cmd (0x0C);                 /* Display ctrl:Disp=ON,Curs/Blnk=OFF */
 310              		.loc 1 245 0
 311 01de 4FF00C00 		mov	r0, #12
 312 01e2 FFF7FEFF 		bl	lcd_write_cmd
 246:LCD_4bit.c    ****   lcd_write_cmd (0x06);                 /* Entry mode: Move right, no shift   */
 313              		.loc 1 246 0
 314 01e6 4FF00600 		mov	r0, #6
 315 01ea FFF7FEFF 		bl	lcd_write_cmd
 247:LCD_4bit.c    **** 
 248:LCD_4bit.c    ****   /* Load user-specific characters into CGRAM                                 */
 249:LCD_4bit.c    ****   lcd_write_cmd(0x40);                  /* Set CGRAM address counter to 0     */
 316              		.loc 1 249 0
 317 01ee 4FF04000 		mov	r0, #64
ARM GAS  D:\DOCUME~1\admin\LOCALS~1\Temp\cc2ORgsL.s 			page 11


 318 01f2 FFF7FEFF 		bl	lcd_write_cmd
 319 01f6 4FF00004 		mov	r4, #0
 320              	.LVL8:
 250:LCD_4bit.c    ****   p = &UserFont[0][0];
 251:LCD_4bit.c    ****   for (i = 0; i < sizeof(UserFont); i++, p++)
 252:LCD_4bit.c    ****     lcd_putchar (*p);
 321              		.loc 1 252 0
 322 01fa 40F20003 		movw	r3, #:lower16:.LANCHOR0
 323 01fe C0F20003 		movt	r3, #:upper16:.LANCHOR0
 324 0202 03F14005 		add	r5, r3, #64
 325              	.L14:
 326 0206 285D     		ldrb	r0, [r5, r4]	@ zero_extendqisi2
 327 0208 FFF7FEFF 		bl	lcd_putchar
 328              		.loc 1 251 0
 329 020c 04F10104 		add	r4, r4, #1
 330 0210 402C     		cmp	r4, #64
 331 0212 F8D1     		bne	.L14
 253:LCD_4bit.c    **** 
 254:LCD_4bit.c    ****   lcd_write_cmd(0x80);                  /* Set DDRAM address counter to 0     */
 332              		.loc 1 254 0
 333 0214 4FF08000 		mov	r0, #128
 334 0218 FFF7FEFF 		bl	lcd_write_cmd
 255:LCD_4bit.c    **** }
 335              		.loc 1 255 0
 336 021c 70BD     		pop	{r4, r5, r6, pc}
 337              	.LFE9:
 338              		.size	lcd_init, .-lcd_init
 339 021e 00BF     		.align	2
 340              		.global	set_cursor
 341              		.thumb
 342              		.thumb_func
 343              		.type	set_cursor, %function
 344              	set_cursor:
 345              	.LFB10:
 256:LCD_4bit.c    **** 
 257:LCD_4bit.c    **** 
 258:LCD_4bit.c    **** 
 259:LCD_4bit.c    **** /*******************************************************************************
 260:LCD_4bit.c    **** * Set cursor position on LCD display                                           *
 261:LCD_4bit.c    **** *   Parameter:    column: column position                                      *
 262:LCD_4bit.c    **** *                 line:   line position                                        *
 263:LCD_4bit.c    **** *   Return:                                                                    *
 264:LCD_4bit.c    **** *******************************************************************************/
 265:LCD_4bit.c    **** 
 266:LCD_4bit.c    **** void set_cursor (int column, int line)
 267:LCD_4bit.c    **** {
 346              		.loc 1 267 0
 347              		@ args = 0, pretend = 0, frame = 0
 348              		@ frame_needed = 0, uses_anonymous_args = 0
 349              	.LVL9:
 350 0220 10B5     		push	{r4, lr}
 351              	.LCFI5:
 268:LCD_4bit.c    ****   unsigned char address;
 269:LCD_4bit.c    **** 
 270:LCD_4bit.c    ****   address = (line * 40) + column;
 271:LCD_4bit.c    ****   address = 0x80 + (address & 0x7F);
 352              		.loc 1 271 0
ARM GAS  D:\DOCUME~1\admin\LOCALS~1\Temp\cc2ORgsL.s 			page 12


 353 0222 01EB8101 		add	r1, r1, r1, lsl #2
 354              	.LVL10:
 355 0226 00EBC100 		add	r0, r0, r1, lsl #3
 356              	.LVL11:
 357 022a 00F07F00 		and	r0, r0, #127
 272:LCD_4bit.c    ****   lcd_write_cmd(address);               /* Set DDRAM address counter to 0     */
 358              		.loc 1 272 0
 359 022e 40F08000 		orr	r0, r0, #128
 360 0232 FFF7FEFF 		bl	lcd_write_cmd
 273:LCD_4bit.c    **** }
 361              		.loc 1 273 0
 362 0236 10BD     		pop	{r4, pc}
 363              	.LFE10:
 364              		.size	set_cursor, .-set_cursor
 365              		.align	2
 366              		.global	lcd_clear
 367              		.thumb
 368              		.thumb_func
 369              		.type	lcd_clear, %function
 370              	lcd_clear:
 371              	.LFB11:
 274:LCD_4bit.c    **** 
 275:LCD_4bit.c    **** /*******************************************************************************
 276:LCD_4bit.c    **** * Clear the LCD display                                                        *
 277:LCD_4bit.c    **** *   Parameter:                                                                 *
 278:LCD_4bit.c    **** *   Return:                                                                    *
 279:LCD_4bit.c    **** *******************************************************************************/
 280:LCD_4bit.c    **** 
 281:LCD_4bit.c    **** void lcd_clear (void)
 282:LCD_4bit.c    **** {
 372              		.loc 1 282 0
 373              		@ args = 0, pretend = 0, frame = 0
 374              		@ frame_needed = 0, uses_anonymous_args = 0
 375 0238 10B5     		push	{r4, lr}
 376              	.LCFI6:
 283:LCD_4bit.c    ****   lcd_write_cmd(0x01);                  /* Display clear                      */
 377              		.loc 1 283 0
 378 023a 4FF00100 		mov	r0, #1
 379 023e FFF7FEFF 		bl	lcd_write_cmd
 284:LCD_4bit.c    ****   set_cursor (0, 0);
 380              		.loc 1 284 0
 381 0242 4FF00000 		mov	r0, #0
 382 0246 0146     		mov	r1, r0
 383 0248 FFF7FEFF 		bl	set_cursor
 285:LCD_4bit.c    **** }
 384              		.loc 1 285 0
 385 024c 10BD     		pop	{r4, pc}
 386              	.LFE11:
 387              		.size	lcd_clear, .-lcd_clear
 388 024e 00BF     		.align	2
 389              		.global	lcd_print
 390              		.thumb
 391              		.thumb_func
 392              		.type	lcd_print, %function
 393              	lcd_print:
 394              	.LFB12:
 286:LCD_4bit.c    **** 
ARM GAS  D:\DOCUME~1\admin\LOCALS~1\Temp\cc2ORgsL.s 			page 13


 287:LCD_4bit.c    **** 
 288:LCD_4bit.c    **** /*******************************************************************************
 289:LCD_4bit.c    **** * Print sting to LCD display                                                   *
 290:LCD_4bit.c    **** *   Parameter:    string: pointer to output string                             *
 291:LCD_4bit.c    **** *   Return:                                                                    *
 292:LCD_4bit.c    **** *******************************************************************************/
 293:LCD_4bit.c    **** 
 294:LCD_4bit.c    **** void lcd_print (char *string)
 295:LCD_4bit.c    **** {
 395              		.loc 1 295 0
 396              		@ args = 0, pretend = 0, frame = 0
 397              		@ frame_needed = 0, uses_anonymous_args = 0
 398              	.LVL12:
 399 0250 10B5     		push	{r4, lr}
 400              	.LCFI7:
 401 0252 0346     		mov	r3, r0
 296:LCD_4bit.c    ****   while (*string)  {
 402              		.loc 1 296 0
 403 0254 0078     		ldrb	r0, [r0, #0]	@ zero_extendqisi2
 404              	.LVL13:
 405 0256 30B1     		cbz	r0, .L24
 406 0258 1C46     		mov	r4, r3
 407              	.L23:
 297:LCD_4bit.c    ****     lcd_putchar (*string++);
 408              		.loc 1 297 0
 409 025a FFF7FEFF 		bl	lcd_putchar
 410              	.LVL14:
 411              		.loc 1 296 0
 412 025e 14F8010F 		ldrb	r0, [r4, #1]!	@ zero_extendqisi2
 413 0262 0028     		cmp	r0, #0
 414 0264 F9D1     		bne	.L23
 415              	.LVL15:
 416              	.L24:
 298:LCD_4bit.c    ****   }
 299:LCD_4bit.c    **** }
 417              		.loc 1 299 0
 418 0266 10BD     		pop	{r4, pc}
 419              	.LFE12:
 420              		.size	lcd_print, .-lcd_print
 421              		.align	2
 422              		.global	lcd_bargraph
 423              		.thumb
 424              		.thumb_func
 425              		.type	lcd_bargraph, %function
 426              	lcd_bargraph:
 427              	.LFB13:
 300:LCD_4bit.c    **** 
 301:LCD_4bit.c    **** 
 302:LCD_4bit.c    **** /*******************************************************************************
 303:LCD_4bit.c    **** * Print a bargraph to LCD display                                              *
 304:LCD_4bit.c    **** *   Parameter:     val:  value 0..100 %                                        *
 305:LCD_4bit.c    **** *                  size: size of bargraph 1..16                                *
 306:LCD_4bit.c    **** *   Return:                                                                    *
 307:LCD_4bit.c    **** *******************************************************************************/
 308:LCD_4bit.c    **** void lcd_bargraph (int value, int size) {
 428              		.loc 1 308 0
 429              		@ args = 0, pretend = 0, frame = 0
ARM GAS  D:\DOCUME~1\admin\LOCALS~1\Temp\cc2ORgsL.s 			page 14


 430              		@ frame_needed = 0, uses_anonymous_args = 0
 431              	.LVL16:
 432 0268 2DE9F041 		push	{r4, r5, r6, r7, r8, lr}
 433              	.LCFI8:
 309:LCD_4bit.c    ****    int i;
 310:LCD_4bit.c    **** 
 311:LCD_4bit.c    ****    value = value * size / 20;            /* Display matrix 5 x 8 pixels       */
 312:LCD_4bit.c    ****    for (i = 0; i < size; i++) {
 434              		.loc 1 312 0
 435 026c 0E1E     		subs	r6, r1, #0
 436 026e 10DC     		bgt	.L27
 437              	.LVL17:
 438 0270 21E0     		b	.L32
 439              	.LVL18:
 440              	.L30:
 313:LCD_4bit.c    ****       if (value > 5) {
 314:LCD_4bit.c    ****          lcd_putchar (0x05);
 315:LCD_4bit.c    ****          value -= 5;
 441              		.loc 1 315 0
 442 0272 A5F10505 		sub	r5, r5, #5
 443              		.loc 1 313 0
 444 0276 052D     		cmp	r5, #5
 445 0278 07DD     		ble	.L29
 446              	.L31:
 447              		.loc 1 314 0
 448 027a 3846     		mov	r0, r7
 449 027c FFF7FEFF 		bl	lcd_putchar
 450              		.loc 1 312 0
 451 0280 04F10104 		add	r4, r4, #1
 452 0284 A642     		cmp	r6, r4
 453 0286 F4DC     		bgt	.L30
 454 0288 15E0     		b	.L32
 455              	.L29:
 316:LCD_4bit.c    ****       }
 317:LCD_4bit.c    ****       else {
 318:LCD_4bit.c    ****          lcd_putchar (value);
 456              		.loc 1 318 0
 457 028a E8B2     		uxtb	r0, r5
 458 028c FFF7FEFF 		bl	lcd_putchar
 459 0290 11E0     		b	.L32
 460              	.LVL19:
 461              	.L27:
 462              		.loc 1 311 0
 463 0292 00FB06F2 		mul	r2, r0, r6
 464 0296 46F26763 		movw	r3, #:lower16:1717986919
 465 029a C6F26663 		movt	r3, #:upper16:1717986919
 466 029e 83FB0213 		smull	r1, r3, r3, r2
 467 02a2 4FEAE272 		asr	r2, r2, #31
 468 02a6 C2EBE305 		rsb	r5, r2, r3, asr #3
 469              	.LVL20:
 470              		.loc 1 313 0
 471 02aa 052D     		cmp	r5, #5
 472 02ac C4BF     		itt	gt
 473 02ae 0024     		movgt	r4, #0
 474              	.LVL21:
 475              		.loc 1 314 0
 476 02b0 0527     		movgt	r7, #5
ARM GAS  D:\DOCUME~1\admin\LOCALS~1\Temp\cc2ORgsL.s 			page 15


 477              		.loc 1 313 0
 478 02b2 E2DC     		bgt	.L31
 479 02b4 E9E7     		b	.L29
 480              	.LVL22:
 481              	.L32:
 319:LCD_4bit.c    ****          break;
 320:LCD_4bit.c    ****       }
 321:LCD_4bit.c    ****    }
 322:LCD_4bit.c    **** }
 482              		.loc 1 322 0
 483 02b6 BDE8F081 		pop	{r4, r5, r6, r7, r8, pc}
 484              	.LFE13:
 485              		.size	lcd_bargraph, .-lcd_bargraph
 486 02ba 00BF     		.align	2
 487              		.global	lcd_bargraphXY
 488              		.thumb
 489              		.thumb_func
 490              		.type	lcd_bargraphXY, %function
 491              	lcd_bargraphXY:
 492              	.LFB14:
 323:LCD_4bit.c    **** 
 324:LCD_4bit.c    **** 
 325:LCD_4bit.c    **** /*******************************************************************************
 326:LCD_4bit.c    **** * Display bargraph on LCD display                                              *
 327:LCD_4bit.c    **** *   Parameter:     pos_x: horizontal position of bargraph start                *
 328:LCD_4bit.c    **** *                  pos_y: vertical position of bargraph                        *
 329:LCD_4bit.c    **** *                  value: size of bargraph active field (in pixels)            *
 330:LCD_4bit.c    **** *   Return:                                                                    *
 331:LCD_4bit.c    **** *******************************************************************************/
 332:LCD_4bit.c    **** 
 333:LCD_4bit.c    **** void lcd_bargraphXY (int pos_x, int pos_y, int value) {
 493              		.loc 1 333 0
 494              		@ args = 0, pretend = 0, frame = 0
 495              		@ frame_needed = 0, uses_anonymous_args = 0
 496              	.LVL23:
 497 02bc 2DE9F041 		push	{r4, r5, r6, r7, r8, lr}
 498              	.LCFI9:
 499 02c0 1646     		mov	r6, r2
 334:LCD_4bit.c    ****   int i;
 335:LCD_4bit.c    **** 
 336:LCD_4bit.c    ****   set_cursor (pos_x, pos_y);
 500              		.loc 1 336 0
 501 02c2 FFF7FEFF 		bl	set_cursor
 502              	.LVL24:
 503 02c6 4FF00005 		mov	r5, #0
 504              	.LVL25:
 337:LCD_4bit.c    ****   for (i = 0; i < 16; i++)  {
 338:LCD_4bit.c    ****     if (value > 5) {
 339:LCD_4bit.c    ****       lcd_putchar (0x05);
 340:LCD_4bit.c    ****       value -= 5;
 341:LCD_4bit.c    ****     } else {
 342:LCD_4bit.c    ****       lcd_putchar (value);
 343:LCD_4bit.c    ****       while (i++ < 16) lcd_putchar (0);
 505              		.loc 1 343 0
 506 02ca 2F46     		mov	r7, r5
 507              		.loc 1 339 0
 508 02cc 4FF00508 		mov	r8, #5
ARM GAS  D:\DOCUME~1\admin\LOCALS~1\Temp\cc2ORgsL.s 			page 16


 509              	.L37:
 510              		.loc 1 338 0
 511 02d0 052E     		cmp	r6, #5
 512 02d2 05DD     		ble	.L34
 513              		.loc 1 339 0
 514 02d4 4046     		mov	r0, r8
 515 02d6 FFF7FEFF 		bl	lcd_putchar
 516              		.loc 1 340 0
 517 02da A6F10506 		sub	r6, r6, #5
 518 02de 0CE0     		b	.L35
 519              	.L34:
 520              		.loc 1 342 0
 521 02e0 F0B2     		uxtb	r0, r6
 522 02e2 FFF7FEFF 		bl	lcd_putchar
 523 02e6 2C46     		mov	r4, r5
 524              	.L36:
 525              		.loc 1 343 0
 526 02e8 3846     		mov	r0, r7
 527 02ea FFF7FEFF 		bl	lcd_putchar
 528 02ee 04F10205 		add	r5, r4, #2
 529 02f2 04F10104 		add	r4, r4, #1
 530 02f6 0F2C     		cmp	r4, #15
 531 02f8 F6DD     		ble	.L36
 532              	.L35:
 533              		.loc 1 337 0
 534 02fa 05F10105 		add	r5, r5, #1
 535 02fe 0F2D     		cmp	r5, #15
 536 0300 E6DD     		ble	.L37
 344:LCD_4bit.c    ****     }
 345:LCD_4bit.c    ****   }
 346:LCD_4bit.c    **** }
 537              		.loc 1 346 0
 538 0302 BDE8F081 		pop	{r4, r5, r6, r7, r8, pc}
 539              	.LFE14:
 540              		.size	lcd_bargraphXY, .-lcd_bargraphXY
 541              		.global	SWAP_DATA
 542              		.global	UserFont
 543              		.section	.rodata
 544              		.align	2
 545              		.set	.LANCHOR0,. + 0
 546              		.type	SWAP_DATA, %object
 547              		.size	SWAP_DATA, 64
 548              	SWAP_DATA:
 549 0000 00000000 		.word	0
 550 0004 08000000 		.word	8
 551 0008 04000000 		.word	4
 552 000c 0C000000 		.word	12
 553 0010 02000000 		.word	2
 554 0014 0A000000 		.word	10
 555 0018 06000000 		.word	6
 556 001c 0E000000 		.word	14
 557 0020 01000000 		.word	1
 558 0024 09000000 		.word	9
 559 0028 05000000 		.word	5
 560 002c 0D000000 		.word	13
 561 0030 03000000 		.word	3
 562 0034 0B000000 		.word	11
ARM GAS  D:\DOCUME~1\admin\LOCALS~1\Temp\cc2ORgsL.s 			page 17


 563 0038 07000000 		.word	7
 564 003c 0F000000 		.word	15
 565              		.type	UserFont, %object
 566              		.size	UserFont, 64
 567              	UserFont:
 568 0040 00       		.byte	0
 569 0041 00       		.byte	0
 570 0042 00       		.byte	0
 571 0043 00       		.byte	0
 572 0044 00       		.byte	0
 573 0045 00       		.byte	0
 574 0046 00       		.byte	0
 575 0047 00       		.byte	0
 576 0048 10       		.byte	16
 577 0049 10       		.byte	16
 578 004a 10       		.byte	16
 579 004b 10       		.byte	16
 580 004c 10       		.byte	16
 581 004d 10       		.byte	16
 582 004e 10       		.byte	16
 583 004f 10       		.byte	16
 584 0050 18       		.byte	24
 585 0051 18       		.byte	24
 586 0052 18       		.byte	24
 587 0053 18       		.byte	24
 588 0054 18       		.byte	24
 589 0055 18       		.byte	24
 590 0056 18       		.byte	24
 591 0057 18       		.byte	24
 592 0058 1C       		.byte	28
 593 0059 1C       		.byte	28
 594 005a 1C       		.byte	28
 595 005b 1C       		.byte	28
 596 005c 1C       		.byte	28
 597 005d 1C       		.byte	28
 598 005e 1C       		.byte	28
 599 005f 1C       		.byte	28
 600 0060 1E       		.byte	30
 601 0061 1E       		.byte	30
 602 0062 1E       		.byte	30
 603 0063 1E       		.byte	30
 604 0064 1E       		.byte	30
 605 0065 1E       		.byte	30
 606 0066 1E       		.byte	30
 607 0067 1E       		.byte	30
 608 0068 1F       		.byte	31
 609 0069 1F       		.byte	31
 610 006a 1F       		.byte	31
 611 006b 1F       		.byte	31
 612 006c 1F       		.byte	31
 613 006d 1F       		.byte	31
 614 006e 1F       		.byte	31
 615 006f 1F       		.byte	31
 616 0070 00       		.byte	0
 617 0071 00       		.byte	0
 618 0072 00       		.byte	0
 619 0073 00       		.byte	0
ARM GAS  D:\DOCUME~1\admin\LOCALS~1\Temp\cc2ORgsL.s 			page 18


 620 0074 00       		.byte	0
 621 0075 00       		.byte	0
 622 0076 00       		.byte	0
 623 0077 00       		.byte	0
 624 0078 00       		.byte	0
 625 0079 00       		.byte	0
 626 007a 00       		.byte	0
 627 007b 00       		.byte	0
 628 007c 00       		.byte	0
 629 007d 00       		.byte	0
 630 007e 00       		.byte	0
 631 007f 00       		.byte	0
 632              		.section	.debug_frame,"",%progbits
 633              	.Lframe0:
 634 0000 0C000000 		.4byte	.LECIE0-.LSCIE0
 635              	.LSCIE0:
 636 0004 FFFFFFFF 		.4byte	0xffffffff
 637 0008 01       		.byte	0x1
 638 0009 00       		.ascii	"\000"
 639 000a 01       		.uleb128 0x1
 640 000b 7C       		.sleb128 -4
 641 000c 0E       		.byte	0xe
 642 000d 0C       		.byte	0xc
 643 000e 0D       		.uleb128 0xd
 644 000f 00       		.uleb128 0x0
 645              		.align	2
 646              	.LECIE0:
 647              	.LSFDE0:
 648 0010 0C000000 		.4byte	.LEFDE0-.LASFDE0
 649              	.LASFDE0:
 650 0014 00000000 		.4byte	.Lframe0
 651 0018 00000000 		.4byte	.LFB2
 652 001c 02000000 		.4byte	.LFE2-.LFB2
 653              		.align	2
 654              	.LEFDE0:
 655              	.LSFDE2:
 656 0020 1C000000 		.4byte	.LEFDE2-.LASFDE2
 657              	.LASFDE2:
 658 0024 00000000 		.4byte	.Lframe0
 659 0028 04000000 		.4byte	.LFB4
 660 002c B0000000 		.4byte	.LFE4-.LFB4
 661 0030 44       		.byte	0x4
 662              		.4byte	.LCFI0-.LFB4
 663 0031 0E       		.byte	0xe
 664 0032 18       		.uleb128 0x18
 665 0033 8E       		.byte	0x8e
 666 0034 01       		.uleb128 0x1
 667 0035 88       		.byte	0x88
 668 0036 02       		.uleb128 0x2
 669 0037 87       		.byte	0x87
 670 0038 03       		.uleb128 0x3
 671 0039 86       		.byte	0x86
 672 003a 04       		.uleb128 0x4
 673 003b 85       		.byte	0x85
 674 003c 05       		.uleb128 0x5
 675 003d 84       		.byte	0x84
 676 003e 06       		.uleb128 0x6
ARM GAS  D:\DOCUME~1\admin\LOCALS~1\Temp\cc2ORgsL.s 			page 19


 677 003f 00       		.align	2
 678              	.LEFDE2:
 679              	.LSFDE4:
 680 0040 14000000 		.4byte	.LEFDE4-.LASFDE4
 681              	.LASFDE4:
 682 0044 00000000 		.4byte	.Lframe0
 683 0048 B4000000 		.4byte	.LFB5
 684 004c 50000000 		.4byte	.LFE5-.LFB5
 685 0050 42       		.byte	0x4
 686              		.4byte	.LCFI1-.LFB5
 687 0051 0E       		.byte	0xe
 688 0052 08       		.uleb128 0x8
 689 0053 8E       		.byte	0x8e
 690 0054 01       		.uleb128 0x1
 691 0055 84       		.byte	0x84
 692 0056 02       		.uleb128 0x2
 693 0057 00       		.align	2
 694              	.LEFDE4:
 695              	.LSFDE6:
 696 0058 14000000 		.4byte	.LEFDE6-.LASFDE6
 697              	.LASFDE6:
 698 005c 00000000 		.4byte	.Lframe0
 699 0060 04010000 		.4byte	.LFB6
 700 0064 28000000 		.4byte	.LFE6-.LFB6
 701 0068 42       		.byte	0x4
 702              		.4byte	.LCFI2-.LFB6
 703 0069 0E       		.byte	0xe
 704 006a 08       		.uleb128 0x8
 705 006b 8E       		.byte	0x8e
 706 006c 01       		.uleb128 0x1
 707 006d 84       		.byte	0x84
 708 006e 02       		.uleb128 0x2
 709 006f 00       		.align	2
 710              	.LEFDE6:
 711              	.LSFDE8:
 712 0070 14000000 		.4byte	.LEFDE8-.LASFDE8
 713              	.LASFDE8:
 714 0074 00000000 		.4byte	.Lframe0
 715 0078 2C010000 		.4byte	.LFB8
 716 007c 28000000 		.4byte	.LFE8-.LFB8
 717 0080 42       		.byte	0x4
 718              		.4byte	.LCFI3-.LFB8
 719 0081 0E       		.byte	0xe
 720 0082 08       		.uleb128 0x8
 721 0083 8E       		.byte	0x8e
 722 0084 01       		.uleb128 0x1
 723 0085 84       		.byte	0x84
 724 0086 02       		.uleb128 0x2
 725 0087 00       		.align	2
 726              	.LEFDE8:
 727              	.LSFDE10:
 728 0088 18000000 		.4byte	.LEFDE10-.LASFDE10
 729              	.LASFDE10:
 730 008c 00000000 		.4byte	.Lframe0
 731 0090 54010000 		.4byte	.LFB9
 732 0094 CA000000 		.4byte	.LFE9-.LFB9
 733 0098 42       		.byte	0x4
ARM GAS  D:\DOCUME~1\admin\LOCALS~1\Temp\cc2ORgsL.s 			page 20


 734              		.4byte	.LCFI4-.LFB9
 735 0099 0E       		.byte	0xe
 736 009a 10       		.uleb128 0x10
 737 009b 8E       		.byte	0x8e
 738 009c 01       		.uleb128 0x1
 739 009d 86       		.byte	0x86
 740 009e 02       		.uleb128 0x2
 741 009f 85       		.byte	0x85
 742 00a0 03       		.uleb128 0x3
 743 00a1 84       		.byte	0x84
 744 00a2 04       		.uleb128 0x4
 745 00a3 00       		.align	2
 746              	.LEFDE10:
 747              	.LSFDE12:
 748 00a4 14000000 		.4byte	.LEFDE12-.LASFDE12
 749              	.LASFDE12:
 750 00a8 00000000 		.4byte	.Lframe0
 751 00ac 20020000 		.4byte	.LFB10
 752 00b0 18000000 		.4byte	.LFE10-.LFB10
 753 00b4 42       		.byte	0x4
 754              		.4byte	.LCFI5-.LFB10
 755 00b5 0E       		.byte	0xe
 756 00b6 08       		.uleb128 0x8
 757 00b7 8E       		.byte	0x8e
 758 00b8 01       		.uleb128 0x1
 759 00b9 84       		.byte	0x84
 760 00ba 02       		.uleb128 0x2
 761 00bb 00       		.align	2
 762              	.LEFDE12:
 763              	.LSFDE14:
 764 00bc 14000000 		.4byte	.LEFDE14-.LASFDE14
 765              	.LASFDE14:
 766 00c0 00000000 		.4byte	.Lframe0
 767 00c4 38020000 		.4byte	.LFB11
 768 00c8 16000000 		.4byte	.LFE11-.LFB11
 769 00cc 42       		.byte	0x4
 770              		.4byte	.LCFI6-.LFB11
 771 00cd 0E       		.byte	0xe
 772 00ce 08       		.uleb128 0x8
 773 00cf 8E       		.byte	0x8e
 774 00d0 01       		.uleb128 0x1
 775 00d1 84       		.byte	0x84
 776 00d2 02       		.uleb128 0x2
 777 00d3 00       		.align	2
 778              	.LEFDE14:
 779              	.LSFDE16:
 780 00d4 14000000 		.4byte	.LEFDE16-.LASFDE16
 781              	.LASFDE16:
 782 00d8 00000000 		.4byte	.Lframe0
 783 00dc 50020000 		.4byte	.LFB12
 784 00e0 18000000 		.4byte	.LFE12-.LFB12
 785 00e4 42       		.byte	0x4
 786              		.4byte	.LCFI7-.LFB12
 787 00e5 0E       		.byte	0xe
 788 00e6 08       		.uleb128 0x8
 789 00e7 8E       		.byte	0x8e
 790 00e8 01       		.uleb128 0x1
ARM GAS  D:\DOCUME~1\admin\LOCALS~1\Temp\cc2ORgsL.s 			page 21


 791 00e9 84       		.byte	0x84
 792 00ea 02       		.uleb128 0x2
 793 00eb 00       		.align	2
 794              	.LEFDE16:
 795              	.LSFDE18:
 796 00ec 1C000000 		.4byte	.LEFDE18-.LASFDE18
 797              	.LASFDE18:
 798 00f0 00000000 		.4byte	.Lframe0
 799 00f4 68020000 		.4byte	.LFB13
 800 00f8 52000000 		.4byte	.LFE13-.LFB13
 801 00fc 44       		.byte	0x4
 802              		.4byte	.LCFI8-.LFB13
 803 00fd 0E       		.byte	0xe
 804 00fe 18       		.uleb128 0x18
 805 00ff 8E       		.byte	0x8e
 806 0100 01       		.uleb128 0x1
 807 0101 88       		.byte	0x88
 808 0102 02       		.uleb128 0x2
 809 0103 87       		.byte	0x87
 810 0104 03       		.uleb128 0x3
 811 0105 86       		.byte	0x86
 812 0106 04       		.uleb128 0x4
 813 0107 85       		.byte	0x85
 814 0108 05       		.uleb128 0x5
 815 0109 84       		.byte	0x84
 816 010a 06       		.uleb128 0x6
 817 010b 00       		.align	2
 818              	.LEFDE18:
 819              	.LSFDE20:
 820 010c 1C000000 		.4byte	.LEFDE20-.LASFDE20
 821              	.LASFDE20:
 822 0110 00000000 		.4byte	.Lframe0
 823 0114 BC020000 		.4byte	.LFB14
 824 0118 4A000000 		.4byte	.LFE14-.LFB14
 825 011c 44       		.byte	0x4
 826              		.4byte	.LCFI9-.LFB14
 827 011d 0E       		.byte	0xe
 828 011e 18       		.uleb128 0x18
 829 011f 8E       		.byte	0x8e
 830 0120 01       		.uleb128 0x1
 831 0121 88       		.byte	0x88
 832 0122 02       		.uleb128 0x2
 833 0123 87       		.byte	0x87
 834 0124 03       		.uleb128 0x3
 835 0125 86       		.byte	0x86
 836 0126 04       		.uleb128 0x4
 837 0127 85       		.byte	0x85
 838 0128 05       		.uleb128 0x5
 839 0129 84       		.byte	0x84
 840 012a 06       		.uleb128 0x6
 841 012b 00       		.align	2
 842              	.LEFDE20:
 843              		.text
 844              	.Letext0:
 845 0306 00BF     		.section	.debug_loc,"",%progbits
 846              	.Ldebug_loc0:
 847              	.LLST1:
ARM GAS  D:\DOCUME~1\admin\LOCALS~1\Temp\cc2ORgsL.s 			page 22


 848 0000 04000000 		.4byte	.LFB4-.Ltext0
 849 0004 08000000 		.4byte	.LCFI0-.Ltext0
 850 0008 0100     		.2byte	0x1
 851 000a 5D       		.byte	0x5d
 852 000b 08000000 		.4byte	.LCFI0-.Ltext0
 853 000f B4000000 		.4byte	.LFE4-.Ltext0
 854 0013 0200     		.2byte	0x2
 855 0015 7D       		.byte	0x7d
 856 0016 18       		.sleb128 24
 857 0017 00000000 		.4byte	0x0
 858 001b 00000000 		.4byte	0x0
 859              	.LLST2:
 860 001f B4000000 		.4byte	.LFB5-.Ltext0
 861 0023 B6000000 		.4byte	.LCFI1-.Ltext0
 862 0027 0100     		.2byte	0x1
 863 0029 5D       		.byte	0x5d
 864 002a B6000000 		.4byte	.LCFI1-.Ltext0
 865 002e 04010000 		.4byte	.LFE5-.Ltext0
 866 0032 0200     		.2byte	0x2
 867 0034 7D       		.byte	0x7d
 868 0035 08       		.sleb128 8
 869 0036 00000000 		.4byte	0x0
 870 003a 00000000 		.4byte	0x0
 871              	.LLST3:
 872 003e B4000000 		.4byte	.LVL2-.Ltext0
 873 0042 DC000000 		.4byte	.LVL3-.Ltext0
 874 0046 0100     		.2byte	0x1
 875 0048 50       		.byte	0x50
 876 0049 00000000 		.4byte	0x0
 877 004d 00000000 		.4byte	0x0
 878              	.LLST4:
 879 0051 04010000 		.4byte	.LFB6-.Ltext0
 880 0055 06010000 		.4byte	.LCFI2-.Ltext0
 881 0059 0100     		.2byte	0x1
 882 005b 5D       		.byte	0x5d
 883 005c 06010000 		.4byte	.LCFI2-.Ltext0
 884 0060 2C010000 		.4byte	.LFE6-.Ltext0
 885 0064 0200     		.2byte	0x2
 886 0066 7D       		.byte	0x7d
 887 0067 08       		.sleb128 8
 888 0068 00000000 		.4byte	0x0
 889 006c 00000000 		.4byte	0x0
 890              	.LLST5:
 891 0070 04010000 		.4byte	.LVL4-.Ltext0
 892 0074 0C010000 		.4byte	.LVL5-.Ltext0
 893 0078 0100     		.2byte	0x1
 894 007a 50       		.byte	0x50
 895 007b 0C010000 		.4byte	.LVL5-.Ltext0
 896 007f 2C010000 		.4byte	.LFE6-.Ltext0
 897 0083 0100     		.2byte	0x1
 898 0085 54       		.byte	0x54
 899 0086 00000000 		.4byte	0x0
 900 008a 00000000 		.4byte	0x0
 901              	.LLST6:
 902 008e 2C010000 		.4byte	.LFB8-.Ltext0
 903 0092 2E010000 		.4byte	.LCFI3-.Ltext0
 904 0096 0100     		.2byte	0x1
ARM GAS  D:\DOCUME~1\admin\LOCALS~1\Temp\cc2ORgsL.s 			page 23


 905 0098 5D       		.byte	0x5d
 906 0099 2E010000 		.4byte	.LCFI3-.Ltext0
 907 009d 54010000 		.4byte	.LFE8-.Ltext0
 908 00a1 0200     		.2byte	0x2
 909 00a3 7D       		.byte	0x7d
 910 00a4 08       		.sleb128 8
 911 00a5 00000000 		.4byte	0x0
 912 00a9 00000000 		.4byte	0x0
 913              	.LLST7:
 914 00ad 2C010000 		.4byte	.LVL6-.Ltext0
 915 00b1 34010000 		.4byte	.LVL7-.Ltext0
 916 00b5 0100     		.2byte	0x1
 917 00b7 50       		.byte	0x50
 918 00b8 34010000 		.4byte	.LVL7-.Ltext0
 919 00bc 54010000 		.4byte	.LFE8-.Ltext0
 920 00c0 0100     		.2byte	0x1
 921 00c2 54       		.byte	0x54
 922 00c3 00000000 		.4byte	0x0
 923 00c7 00000000 		.4byte	0x0
 924              	.LLST8:
 925 00cb 54010000 		.4byte	.LFB9-.Ltext0
 926 00cf 56010000 		.4byte	.LCFI4-.Ltext0
 927 00d3 0100     		.2byte	0x1
 928 00d5 5D       		.byte	0x5d
 929 00d6 56010000 		.4byte	.LCFI4-.Ltext0
 930 00da 1E020000 		.4byte	.LFE9-.Ltext0
 931 00de 0200     		.2byte	0x2
 932 00e0 7D       		.byte	0x7d
 933 00e1 10       		.sleb128 16
 934 00e2 00000000 		.4byte	0x0
 935 00e6 00000000 		.4byte	0x0
 936              	.LLST9:
 937 00ea 20020000 		.4byte	.LFB10-.Ltext0
 938 00ee 22020000 		.4byte	.LCFI5-.Ltext0
 939 00f2 0100     		.2byte	0x1
 940 00f4 5D       		.byte	0x5d
 941 00f5 22020000 		.4byte	.LCFI5-.Ltext0
 942 00f9 38020000 		.4byte	.LFE10-.Ltext0
 943 00fd 0200     		.2byte	0x2
 944 00ff 7D       		.byte	0x7d
 945 0100 08       		.sleb128 8
 946 0101 00000000 		.4byte	0x0
 947 0105 00000000 		.4byte	0x0
 948              	.LLST10:
 949 0109 20020000 		.4byte	.LVL9-.Ltext0
 950 010d 2A020000 		.4byte	.LVL11-.Ltext0
 951 0111 0100     		.2byte	0x1
 952 0113 50       		.byte	0x50
 953 0114 00000000 		.4byte	0x0
 954 0118 00000000 		.4byte	0x0
 955              	.LLST11:
 956 011c 20020000 		.4byte	.LVL9-.Ltext0
 957 0120 26020000 		.4byte	.LVL10-.Ltext0
 958 0124 0100     		.2byte	0x1
 959 0126 51       		.byte	0x51
 960 0127 00000000 		.4byte	0x0
 961 012b 00000000 		.4byte	0x0
ARM GAS  D:\DOCUME~1\admin\LOCALS~1\Temp\cc2ORgsL.s 			page 24


 962              	.LLST12:
 963 012f 38020000 		.4byte	.LFB11-.Ltext0
 964 0133 3A020000 		.4byte	.LCFI6-.Ltext0
 965 0137 0100     		.2byte	0x1
 966 0139 5D       		.byte	0x5d
 967 013a 3A020000 		.4byte	.LCFI6-.Ltext0
 968 013e 4E020000 		.4byte	.LFE11-.Ltext0
 969 0142 0200     		.2byte	0x2
 970 0144 7D       		.byte	0x7d
 971 0145 08       		.sleb128 8
 972 0146 00000000 		.4byte	0x0
 973 014a 00000000 		.4byte	0x0
 974              	.LLST13:
 975 014e 50020000 		.4byte	.LFB12-.Ltext0
 976 0152 52020000 		.4byte	.LCFI7-.Ltext0
 977 0156 0100     		.2byte	0x1
 978 0158 5D       		.byte	0x5d
 979 0159 52020000 		.4byte	.LCFI7-.Ltext0
 980 015d 68020000 		.4byte	.LFE12-.Ltext0
 981 0161 0200     		.2byte	0x2
 982 0163 7D       		.byte	0x7d
 983 0164 08       		.sleb128 8
 984 0165 00000000 		.4byte	0x0
 985 0169 00000000 		.4byte	0x0
 986              	.LLST14:
 987 016d 50020000 		.4byte	.LVL12-.Ltext0
 988 0171 56020000 		.4byte	.LVL13-.Ltext0
 989 0175 0100     		.2byte	0x1
 990 0177 50       		.byte	0x50
 991 0178 56020000 		.4byte	.LVL13-.Ltext0
 992 017c 5E020000 		.4byte	.LVL14-.Ltext0
 993 0180 0100     		.2byte	0x1
 994 0182 53       		.byte	0x53
 995 0183 66020000 		.4byte	.LVL15-.Ltext0
 996 0187 68020000 		.4byte	.LFE12-.Ltext0
 997 018b 0100     		.2byte	0x1
 998 018d 53       		.byte	0x53
 999 018e 00000000 		.4byte	0x0
 1000 0192 00000000 		.4byte	0x0
 1001              	.LLST15:
 1002 0196 68020000 		.4byte	.LFB13-.Ltext0
 1003 019a 6C020000 		.4byte	.LCFI8-.Ltext0
 1004 019e 0100     		.2byte	0x1
 1005 01a0 5D       		.byte	0x5d
 1006 01a1 6C020000 		.4byte	.LCFI8-.Ltext0
 1007 01a5 BA020000 		.4byte	.LFE13-.Ltext0
 1008 01a9 0200     		.2byte	0x2
 1009 01ab 7D       		.byte	0x7d
 1010 01ac 18       		.sleb128 24
 1011 01ad 00000000 		.4byte	0x0
 1012 01b1 00000000 		.4byte	0x0
 1013              	.LLST16:
 1014 01b5 68020000 		.4byte	.LVL16-.Ltext0
 1015 01b9 72020000 		.4byte	.LVL18-.Ltext0
 1016 01bd 0100     		.2byte	0x1
 1017 01bf 50       		.byte	0x50
 1018 01c0 72020000 		.4byte	.LVL18-.Ltext0
ARM GAS  D:\DOCUME~1\admin\LOCALS~1\Temp\cc2ORgsL.s 			page 25


 1019 01c4 92020000 		.4byte	.LVL19-.Ltext0
 1020 01c8 0100     		.2byte	0x1
 1021 01ca 55       		.byte	0x55
 1022 01cb 92020000 		.4byte	.LVL19-.Ltext0
 1023 01cf AA020000 		.4byte	.LVL20-.Ltext0
 1024 01d3 0100     		.2byte	0x1
 1025 01d5 50       		.byte	0x50
 1026 01d6 AA020000 		.4byte	.LVL20-.Ltext0
 1027 01da BA020000 		.4byte	.LFE13-.Ltext0
 1028 01de 0100     		.2byte	0x1
 1029 01e0 55       		.byte	0x55
 1030 01e1 00000000 		.4byte	0x0
 1031 01e5 00000000 		.4byte	0x0
 1032              	.LLST17:
 1033 01e9 68020000 		.4byte	.LVL16-.Ltext0
 1034 01ed 70020000 		.4byte	.LVL17-.Ltext0
 1035 01f1 0100     		.2byte	0x1
 1036 01f3 51       		.byte	0x51
 1037 01f4 70020000 		.4byte	.LVL17-.Ltext0
 1038 01f8 BA020000 		.4byte	.LFE13-.Ltext0
 1039 01fc 0100     		.2byte	0x1
 1040 01fe 56       		.byte	0x56
 1041 01ff 00000000 		.4byte	0x0
 1042 0203 00000000 		.4byte	0x0
 1043              	.LLST18:
 1044 0207 72020000 		.4byte	.LVL18-.Ltext0
 1045 020b 92020000 		.4byte	.LVL19-.Ltext0
 1046 020f 0100     		.2byte	0x1
 1047 0211 54       		.byte	0x54
 1048 0212 B0020000 		.4byte	.LVL21-.Ltext0
 1049 0216 BA020000 		.4byte	.LFE13-.Ltext0
 1050 021a 0100     		.2byte	0x1
 1051 021c 54       		.byte	0x54
 1052 021d 00000000 		.4byte	0x0
 1053 0221 00000000 		.4byte	0x0
 1054              	.LLST19:
 1055 0225 BC020000 		.4byte	.LFB14-.Ltext0
 1056 0229 C0020000 		.4byte	.LCFI9-.Ltext0
 1057 022d 0100     		.2byte	0x1
 1058 022f 5D       		.byte	0x5d
 1059 0230 C0020000 		.4byte	.LCFI9-.Ltext0
 1060 0234 06030000 		.4byte	.LFE14-.Ltext0
 1061 0238 0200     		.2byte	0x2
 1062 023a 7D       		.byte	0x7d
 1063 023b 18       		.sleb128 24
 1064 023c 00000000 		.4byte	0x0
 1065 0240 00000000 		.4byte	0x0
 1066              	.LLST20:
 1067 0244 BC020000 		.4byte	.LVL23-.Ltext0
 1068 0248 C6020000 		.4byte	.LVL24-.Ltext0
 1069 024c 0100     		.2byte	0x1
 1070 024e 50       		.byte	0x50
 1071 024f 00000000 		.4byte	0x0
 1072 0253 00000000 		.4byte	0x0
 1073              	.LLST21:
 1074 0257 BC020000 		.4byte	.LVL23-.Ltext0
 1075 025b C6020000 		.4byte	.LVL24-.Ltext0
ARM GAS  D:\DOCUME~1\admin\LOCALS~1\Temp\cc2ORgsL.s 			page 26


 1076 025f 0100     		.2byte	0x1
 1077 0261 51       		.byte	0x51
 1078 0262 00000000 		.4byte	0x0
 1079 0266 00000000 		.4byte	0x0
 1080              	.LLST22:
 1081 026a BC020000 		.4byte	.LVL23-.Ltext0
 1082 026e C6020000 		.4byte	.LVL24-.Ltext0
 1083 0272 0100     		.2byte	0x1
 1084 0274 52       		.byte	0x52
 1085 0275 C6020000 		.4byte	.LVL24-.Ltext0
 1086 0279 06030000 		.4byte	.LFE14-.Ltext0
 1087 027d 0100     		.2byte	0x1
 1088 027f 56       		.byte	0x56
 1089 0280 00000000 		.4byte	0x0
 1090 0284 00000000 		.4byte	0x0
 1091              		.file 2 "E:/programs/keil_arm_eval/ARM/INC/ST/STM32F10x/stm32f10x_map.h"
 1092              		.section	.debug_info
 1093 0000 61040000 		.4byte	0x461
 1094 0004 0200     		.2byte	0x2
 1095 0006 00000000 		.4byte	.Ldebug_abbrev0
 1096 000a 04       		.byte	0x4
 1097 000b 01       		.uleb128 0x1
 1098 000c 1E010000 		.4byte	.LASF36
 1099 0010 01       		.byte	0x1
 1100 0011 87000000 		.4byte	.LASF37
 1101 0015 34010000 		.4byte	.LASF38
 1102 0019 00000000 		.4byte	.Ltext0
 1103 001d 06030000 		.4byte	.Letext0
 1104 0021 00000000 		.4byte	.Ldebug_line0
 1105 0025 02       		.uleb128 0x2
 1106 0026 04       		.byte	0x4
 1107 0027 05       		.byte	0x5
 1108 0028 C1010000 		.4byte	.LASF0
 1109 002c 02       		.uleb128 0x2
 1110 002d 02       		.byte	0x2
 1111 002e 05       		.byte	0x5
 1112 002f A7010000 		.4byte	.LASF1
 1113 0033 02       		.uleb128 0x2
 1114 0034 01       		.byte	0x1
 1115 0035 06       		.byte	0x6
 1116 0036 CA010000 		.4byte	.LASF2
 1117 003a 02       		.uleb128 0x2
 1118 003b 04       		.byte	0x4
 1119 003c 07       		.byte	0x7
 1120 003d A0000000 		.4byte	.LASF3
 1121 0041 02       		.uleb128 0x2
 1122 0042 02       		.byte	0x2
 1123 0043 07       		.byte	0x7
 1124 0044 24000000 		.4byte	.LASF4
 1125 0048 02       		.uleb128 0x2
 1126 0049 01       		.byte	0x1
 1127 004a 08       		.byte	0x8
 1128 004b 92000000 		.4byte	.LASF5
 1129 004f 03       		.uleb128 0x3
 1130 0050 3A000000 		.4byte	0x3a
 1131 0054 04       		.uleb128 0x4
 1132 0055 04       		.byte	0x4
ARM GAS  D:\DOCUME~1\admin\LOCALS~1\Temp\cc2ORgsL.s 			page 27


 1133 0056 07       		.byte	0x7
 1134 0057 05       		.uleb128 0x5
 1135 0058 1C       		.byte	0x1c
 1136 0059 02       		.byte	0x2
 1137 005a 4F01     		.2byte	0x14f
 1138 005c CA000000 		.4byte	0xca
 1139 0060 06       		.uleb128 0x6
 1140 0061 43524C00 		.ascii	"CRL\000"
 1141 0065 02       		.byte	0x2
 1142 0066 5001     		.2byte	0x150
 1143 0068 4F000000 		.4byte	0x4f
 1144 006c 02       		.byte	0x2
 1145 006d 23       		.byte	0x23
 1146 006e 00       		.uleb128 0x0
 1147 006f 06       		.uleb128 0x6
 1148 0070 43524800 		.ascii	"CRH\000"
 1149 0074 02       		.byte	0x2
 1150 0075 5101     		.2byte	0x151
 1151 0077 4F000000 		.4byte	0x4f
 1152 007b 02       		.byte	0x2
 1153 007c 23       		.byte	0x23
 1154 007d 04       		.uleb128 0x4
 1155 007e 06       		.uleb128 0x6
 1156 007f 49445200 		.ascii	"IDR\000"
 1157 0083 02       		.byte	0x2
 1158 0084 5201     		.2byte	0x152
 1159 0086 4F000000 		.4byte	0x4f
 1160 008a 02       		.byte	0x2
 1161 008b 23       		.byte	0x23
 1162 008c 08       		.uleb128 0x8
 1163 008d 06       		.uleb128 0x6
 1164 008e 4F445200 		.ascii	"ODR\000"
 1165 0092 02       		.byte	0x2
 1166 0093 5301     		.2byte	0x153
 1167 0095 4F000000 		.4byte	0x4f
 1168 0099 02       		.byte	0x2
 1169 009a 23       		.byte	0x23
 1170 009b 0C       		.uleb128 0xc
 1171 009c 07       		.uleb128 0x7
 1172 009d 1F000000 		.4byte	.LASF6
 1173 00a1 02       		.byte	0x2
 1174 00a2 5401     		.2byte	0x154
 1175 00a4 4F000000 		.4byte	0x4f
 1176 00a8 02       		.byte	0x2
 1177 00a9 23       		.byte	0x23
 1178 00aa 10       		.uleb128 0x10
 1179 00ab 06       		.uleb128 0x6
 1180 00ac 42525200 		.ascii	"BRR\000"
 1181 00b0 02       		.byte	0x2
 1182 00b1 5501     		.2byte	0x155
 1183 00b3 4F000000 		.4byte	0x4f
 1184 00b7 02       		.byte	0x2
 1185 00b8 23       		.byte	0x23
 1186 00b9 14       		.uleb128 0x14
 1187 00ba 07       		.uleb128 0x7
 1188 00bb E0010000 		.4byte	.LASF7
 1189 00bf 02       		.byte	0x2
ARM GAS  D:\DOCUME~1\admin\LOCALS~1\Temp\cc2ORgsL.s 			page 28


 1190 00c0 5601     		.2byte	0x156
 1191 00c2 4F000000 		.4byte	0x4f
 1192 00c6 02       		.byte	0x2
 1193 00c7 23       		.byte	0x23
 1194 00c8 18       		.uleb128 0x18
 1195 00c9 00       		.byte	0x0
 1196 00ca 05       		.uleb128 0x5
 1197 00cb 28       		.byte	0x28
 1198 00cc 02       		.byte	0x2
 1199 00cd AB01     		.2byte	0x1ab
 1200 00cf 69010000 		.4byte	0x169
 1201 00d3 06       		.uleb128 0x6
 1202 00d4 435200   		.ascii	"CR\000"
 1203 00d7 02       		.byte	0x2
 1204 00d8 AC01     		.2byte	0x1ac
 1205 00da 4F000000 		.4byte	0x4f
 1206 00de 02       		.byte	0x2
 1207 00df 23       		.byte	0x23
 1208 00e0 00       		.uleb128 0x0
 1209 00e1 07       		.uleb128 0x7
 1210 00e2 0D000000 		.4byte	.LASF8
 1211 00e6 02       		.byte	0x2
 1212 00e7 AD01     		.2byte	0x1ad
 1213 00e9 4F000000 		.4byte	0x4f
 1214 00ed 02       		.byte	0x2
 1215 00ee 23       		.byte	0x23
 1216 00ef 04       		.uleb128 0x4
 1217 00f0 06       		.uleb128 0x6
 1218 00f1 43495200 		.ascii	"CIR\000"
 1219 00f5 02       		.byte	0x2
 1220 00f6 AE01     		.2byte	0x1ae
 1221 00f8 4F000000 		.4byte	0x4f
 1222 00fc 02       		.byte	0x2
 1223 00fd 23       		.byte	0x23
 1224 00fe 08       		.uleb128 0x8
 1225 00ff 07       		.uleb128 0x7
 1226 0100 DC000000 		.4byte	.LASF9
 1227 0104 02       		.byte	0x2
 1228 0105 AF01     		.2byte	0x1af
 1229 0107 4F000000 		.4byte	0x4f
 1230 010b 02       		.byte	0x2
 1231 010c 23       		.byte	0x23
 1232 010d 0C       		.uleb128 0xc
 1233 010e 07       		.uleb128 0x7
 1234 010f 45000000 		.4byte	.LASF10
 1235 0113 02       		.byte	0x2
 1236 0114 B001     		.2byte	0x1b0
 1237 0116 4F000000 		.4byte	0x4f
 1238 011a 02       		.byte	0x2
 1239 011b 23       		.byte	0x23
 1240 011c 10       		.uleb128 0x10
 1241 011d 07       		.uleb128 0x7
 1242 011e 12000000 		.4byte	.LASF11
 1243 0122 02       		.byte	0x2
 1244 0123 B101     		.2byte	0x1b1
 1245 0125 4F000000 		.4byte	0x4f
 1246 0129 02       		.byte	0x2
ARM GAS  D:\DOCUME~1\admin\LOCALS~1\Temp\cc2ORgsL.s 			page 29


 1247 012a 23       		.byte	0x23
 1248 012b 14       		.uleb128 0x14
 1249 012c 07       		.uleb128 0x7
 1250 012d 00000000 		.4byte	.LASF12
 1251 0131 02       		.byte	0x2
 1252 0132 B201     		.2byte	0x1b2
 1253 0134 4F000000 		.4byte	0x4f
 1254 0138 02       		.byte	0x2
 1255 0139 23       		.byte	0x23
 1256 013a 18       		.uleb128 0x18
 1257 013b 07       		.uleb128 0x7
 1258 013c CB000000 		.4byte	.LASF13
 1259 0140 02       		.byte	0x2
 1260 0141 B301     		.2byte	0x1b3
 1261 0143 4F000000 		.4byte	0x4f
 1262 0147 02       		.byte	0x2
 1263 0148 23       		.byte	0x23
 1264 0149 1C       		.uleb128 0x1c
 1265 014a 07       		.uleb128 0x7
 1266 014b 08000000 		.4byte	.LASF14
 1267 014f 02       		.byte	0x2
 1268 0150 B401     		.2byte	0x1b4
 1269 0152 4F000000 		.4byte	0x4f
 1270 0156 02       		.byte	0x2
 1271 0157 23       		.byte	0x23
 1272 0158 20       		.uleb128 0x20
 1273 0159 06       		.uleb128 0x6
 1274 015a 43535200 		.ascii	"CSR\000"
 1275 015e 02       		.byte	0x2
 1276 015f B501     		.2byte	0x1b5
 1277 0161 4F000000 		.4byte	0x4f
 1278 0165 02       		.byte	0x2
 1279 0166 23       		.byte	0x23
 1280 0167 24       		.uleb128 0x24
 1281 0168 00       		.byte	0x0
 1282 0169 08       		.uleb128 0x8
 1283 016a 88010000 		.4byte	.LASF39
 1284 016e 01       		.byte	0x1
 1285 016f 69       		.byte	0x69
 1286 0170 01       		.byte	0x1
 1287 0171 00000000 		.4byte	.LFB2
 1288 0175 02000000 		.4byte	.LFE2
 1289 0179 01       		.byte	0x1
 1290 017a 5D       		.byte	0x5d
 1291 017b 8D010000 		.4byte	0x18d
 1292 017f 09       		.uleb128 0x9
 1293 0180 636E7400 		.ascii	"cnt\000"
 1294 0184 01       		.byte	0x1
 1295 0185 68       		.byte	0x68
 1296 0186 8D010000 		.4byte	0x18d
 1297 018a 01       		.byte	0x1
 1298 018b 50       		.byte	0x50
 1299 018c 00       		.byte	0x0
 1300 018d 0A       		.uleb128 0xa
 1301 018e 04       		.byte	0x4
 1302 018f 05       		.byte	0x5
 1303 0190 696E7400 		.ascii	"int\000"
ARM GAS  D:\DOCUME~1\admin\LOCALS~1\Temp\cc2ORgsL.s 			page 30


 1304 0194 0B       		.uleb128 0xb
 1305 0195 B1010000 		.4byte	.LASF40
 1306 0199 01       		.byte	0x1
 1307 019a 77       		.byte	0x77
 1308 019b 01       		.byte	0x1
 1309 019c 48000000 		.4byte	0x48
 1310 01a0 01       		.byte	0x1
 1311 01a1 B1010000 		.4byte	0x1b1
 1312 01a5 0C       		.uleb128 0xc
 1313 01a6 37000000 		.4byte	.LASF20
 1314 01aa 01       		.byte	0x1
 1315 01ab 78       		.byte	0x78
 1316 01ac 48000000 		.4byte	0x48
 1317 01b0 00       		.byte	0x0
 1318 01b1 0D       		.uleb128 0xd
 1319 01b2 8E010000 		.4byte	.LASF41
 1320 01b6 01       		.byte	0x1
 1321 01b7 93       		.byte	0x93
 1322 01b8 01       		.byte	0x1
 1323 01b9 48000000 		.4byte	0x48
 1324 01bd 04000000 		.4byte	.LFB4
 1325 01c1 B4000000 		.4byte	.LFE4
 1326 01c5 00000000 		.4byte	.LLST1
 1327 01c9 FA010000 		.4byte	0x1fa
 1328 01cd 0E       		.uleb128 0xe
 1329 01ce 37000000 		.4byte	.LASF20
 1330 01d2 01       		.byte	0x1
 1331 01d3 94       		.byte	0x94
 1332 01d4 48000000 		.4byte	0x48
 1333 01d8 01       		.byte	0x1
 1334 01d9 50       		.byte	0x50
 1335 01da 0F       		.uleb128 0xf
 1336 01db 94010000 		.4byte	0x194
 1337 01df 08000000 		.4byte	.LBB4
 1338 01e3 AA000000 		.4byte	.LBE4
 1339 01e7 01       		.byte	0x1
 1340 01e8 97       		.byte	0x97
 1341 01e9 10       		.uleb128 0x10
 1342 01ea 08000000 		.4byte	.LBB5
 1343 01ee AA000000 		.4byte	.LBE5
 1344 01f2 11       		.uleb128 0x11
 1345 01f3 A5010000 		.4byte	0x1a5
 1346 01f7 00       		.byte	0x0
 1347 01f8 00       		.byte	0x0
 1348 01f9 00       		.byte	0x0
 1349 01fa 12       		.uleb128 0x12
 1350 01fb 01       		.byte	0x1
 1351 01fc 64000000 		.4byte	.LASF15
 1352 0200 01       		.byte	0x1
 1353 0201 A5       		.byte	0xa5
 1354 0202 01       		.byte	0x1
 1355 0203 B4000000 		.4byte	.LFB5
 1356 0207 04010000 		.4byte	.LFE5
 1357 020b 1F000000 		.4byte	.LLST2
 1358 020f 21020000 		.4byte	0x221
 1359 0213 13       		.uleb128 0x13
 1360 0214 6300     		.ascii	"c\000"
ARM GAS  D:\DOCUME~1\admin\LOCALS~1\Temp\cc2ORgsL.s 			page 31


 1361 0216 01       		.byte	0x1
 1362 0217 A4       		.byte	0xa4
 1363 0218 48000000 		.4byte	0x48
 1364 021c 3E000000 		.4byte	.LLST3
 1365 0220 00       		.byte	0x0
 1366 0221 12       		.uleb128 0x12
 1367 0222 01       		.byte	0x1
 1368 0223 B2000000 		.4byte	.LASF16
 1369 0227 01       		.byte	0x1
 1370 0228 B6       		.byte	0xb6
 1371 0229 01       		.byte	0x1
 1372 022a 04010000 		.4byte	.LFB6
 1373 022e 2C010000 		.4byte	.LFE6
 1374 0232 51000000 		.4byte	.LLST4
 1375 0236 48020000 		.4byte	0x248
 1376 023a 13       		.uleb128 0x13
 1377 023b 6300     		.ascii	"c\000"
 1378 023d 01       		.byte	0x1
 1379 023e B5       		.byte	0xb5
 1380 023f 48000000 		.4byte	0x48
 1381 0243 70000000 		.4byte	.LLST5
 1382 0247 00       		.byte	0x0
 1383 0248 14       		.uleb128 0x14
 1384 0249 E5010000 		.4byte	.LASF42
 1385 024d 01       		.byte	0x1
 1386 024e C6       		.byte	0xc6
 1387 024f 01       		.byte	0x1
 1388 0250 01       		.byte	0x1
 1389 0251 5F020000 		.4byte	0x25f
 1390 0255 15       		.uleb128 0x15
 1391 0256 6300     		.ascii	"c\000"
 1392 0258 01       		.byte	0x1
 1393 0259 C5       		.byte	0xc5
 1394 025a 48000000 		.4byte	0x48
 1395 025e 00       		.byte	0x0
 1396 025f 12       		.uleb128 0x12
 1397 0260 01       		.byte	0x1
 1398 0261 58000000 		.4byte	.LASF17
 1399 0265 01       		.byte	0x1
 1400 0266 D6       		.byte	0xd6
 1401 0267 01       		.byte	0x1
 1402 0268 2C010000 		.4byte	.LFB8
 1403 026c 54010000 		.4byte	.LFE8
 1404 0270 8E000000 		.4byte	.LLST6
 1405 0274 9B020000 		.4byte	0x29b
 1406 0278 13       		.uleb128 0x13
 1407 0279 6300     		.ascii	"c\000"
 1408 027b 01       		.byte	0x1
 1409 027c D5       		.byte	0xd5
 1410 027d 9B020000 		.4byte	0x29b
 1411 0281 AD000000 		.4byte	.LLST7
 1412 0285 0F       		.uleb128 0xf
 1413 0286 48020000 		.4byte	0x248
 1414 028a 30010000 		.4byte	.LBB8
 1415 028e 52010000 		.4byte	.LBE8
 1416 0292 01       		.byte	0x1
 1417 0293 D7       		.byte	0xd7
ARM GAS  D:\DOCUME~1\admin\LOCALS~1\Temp\cc2ORgsL.s 			page 32


 1418 0294 16       		.uleb128 0x16
 1419 0295 55020000 		.4byte	0x255
 1420 0299 00       		.byte	0x0
 1421 029a 00       		.byte	0x0
 1422 029b 02       		.uleb128 0x2
 1423 029c 01       		.byte	0x1
 1424 029d 08       		.byte	0x8
 1425 029e 0A010000 		.4byte	.LASF18
 1426 02a2 12       		.uleb128 0x12
 1427 02a3 01       		.byte	0x1
 1428 02a4 9E010000 		.4byte	.LASF19
 1429 02a8 01       		.byte	0x1
 1430 02a9 E2       		.byte	0xe2
 1431 02aa 01       		.byte	0x1
 1432 02ab 54010000 		.4byte	.LFB9
 1433 02af 1E020000 		.4byte	.LFE9
 1434 02b3 CB000000 		.4byte	.LLST8
 1435 02b7 D0020000 		.4byte	0x2d0
 1436 02bb 17       		.uleb128 0x17
 1437 02bc 6900     		.ascii	"i\000"
 1438 02be 01       		.byte	0x1
 1439 02bf E3       		.byte	0xe3
 1440 02c0 8D010000 		.4byte	0x18d
 1441 02c4 01       		.byte	0x1
 1442 02c5 54       		.byte	0x54
 1443 02c6 18       		.uleb128 0x18
 1444 02c7 7000     		.ascii	"p\000"
 1445 02c9 01       		.byte	0x1
 1446 02ca E4       		.byte	0xe4
 1447 02cb D0020000 		.4byte	0x2d0
 1448 02cf 00       		.byte	0x0
 1449 02d0 19       		.uleb128 0x19
 1450 02d1 04       		.byte	0x4
 1451 02d2 D6020000 		.4byte	0x2d6
 1452 02d6 1A       		.uleb128 0x1a
 1453 02d7 9B020000 		.4byte	0x29b
 1454 02db 1B       		.uleb128 0x1b
 1455 02dc 01       		.byte	0x1
 1456 02dd C0000000 		.4byte	.LASF21
 1457 02e1 01       		.byte	0x1
 1458 02e2 0B01     		.2byte	0x10b
 1459 02e4 01       		.byte	0x1
 1460 02e5 20020000 		.4byte	.LFB10
 1461 02e9 38020000 		.4byte	.LFE10
 1462 02ed EA000000 		.4byte	.LLST9
 1463 02f1 22030000 		.4byte	0x322
 1464 02f5 1C       		.uleb128 0x1c
 1465 02f6 80000000 		.4byte	.LASF22
 1466 02fa 01       		.byte	0x1
 1467 02fb 0A01     		.2byte	0x10a
 1468 02fd 8D010000 		.4byte	0x18d
 1469 0301 09010000 		.4byte	.LLST10
 1470 0305 1C       		.uleb128 0x1c
 1471 0306 4E000000 		.4byte	.LASF23
 1472 030a 01       		.byte	0x1
 1473 030b 0A01     		.2byte	0x10a
 1474 030d 8D010000 		.4byte	0x18d
ARM GAS  D:\DOCUME~1\admin\LOCALS~1\Temp\cc2ORgsL.s 			page 33


 1475 0311 1C010000 		.4byte	.LLST11
 1476 0315 1D       		.uleb128 0x1d
 1477 0316 02010000 		.4byte	.LASF24
 1478 031a 01       		.byte	0x1
 1479 031b 0C01     		.2byte	0x10c
 1480 031d 48000000 		.4byte	0x48
 1481 0321 00       		.byte	0x0
 1482 0322 1E       		.uleb128 0x1e
 1483 0323 01       		.byte	0x1
 1484 0324 D6010000 		.4byte	.LASF43
 1485 0328 01       		.byte	0x1
 1486 0329 1A01     		.2byte	0x11a
 1487 032b 01       		.byte	0x1
 1488 032c 38020000 		.4byte	.LFB11
 1489 0330 4E020000 		.4byte	.LFE11
 1490 0334 2F010000 		.4byte	.LLST12
 1491 0338 1B       		.uleb128 0x1b
 1492 0339 01       		.byte	0x1
 1493 033a 2A010000 		.4byte	.LASF25
 1494 033e 01       		.byte	0x1
 1495 033f 2701     		.2byte	0x127
 1496 0341 01       		.byte	0x1
 1497 0342 50020000 		.4byte	.LFB12
 1498 0346 68020000 		.4byte	.LFE12
 1499 034a 4E010000 		.4byte	.LLST13
 1500 034e 63030000 		.4byte	0x363
 1501 0352 1C       		.uleb128 0x1c
 1502 0353 3E000000 		.4byte	.LASF26
 1503 0357 01       		.byte	0x1
 1504 0358 2601     		.2byte	0x126
 1505 035a 63030000 		.4byte	0x363
 1506 035e 6D010000 		.4byte	.LLST14
 1507 0362 00       		.byte	0x0
 1508 0363 19       		.uleb128 0x19
 1509 0364 04       		.byte	0x4
 1510 0365 9B020000 		.4byte	0x29b
 1511 0369 1B       		.uleb128 0x1b
 1512 036a 01       		.byte	0x1
 1513 036b 73000000 		.4byte	.LASF27
 1514 036f 01       		.byte	0x1
 1515 0370 3401     		.2byte	0x134
 1516 0372 01       		.byte	0x1
 1517 0373 68020000 		.4byte	.LFB13
 1518 0377 BA020000 		.4byte	.LFE13
 1519 037b 96010000 		.4byte	.LLST15
 1520 037f B2030000 		.4byte	0x3b2
 1521 0383 1C       		.uleb128 0x1c
 1522 0384 19000000 		.4byte	.LASF28
 1523 0388 01       		.byte	0x1
 1524 0389 3401     		.2byte	0x134
 1525 038b 8D010000 		.4byte	0x18d
 1526 038f B5010000 		.4byte	.LLST16
 1527 0393 1C       		.uleb128 0x1c
 1528 0394 53000000 		.4byte	.LASF29
 1529 0398 01       		.byte	0x1
 1530 0399 3401     		.2byte	0x134
 1531 039b 8D010000 		.4byte	0x18d
ARM GAS  D:\DOCUME~1\admin\LOCALS~1\Temp\cc2ORgsL.s 			page 34


 1532 039f E9010000 		.4byte	.LLST17
 1533 03a3 1F       		.uleb128 0x1f
 1534 03a4 6900     		.ascii	"i\000"
 1535 03a6 01       		.byte	0x1
 1536 03a7 3501     		.2byte	0x135
 1537 03a9 8D010000 		.4byte	0x18d
 1538 03ad 07020000 		.4byte	.LLST18
 1539 03b1 00       		.byte	0x0
 1540 03b2 1B       		.uleb128 0x1b
 1541 03b3 01       		.byte	0x1
 1542 03b4 0F010000 		.4byte	.LASF30
 1543 03b8 01       		.byte	0x1
 1544 03b9 4D01     		.2byte	0x14d
 1545 03bb 01       		.byte	0x1
 1546 03bc BC020000 		.4byte	.LFB14
 1547 03c0 06030000 		.4byte	.LFE14
 1548 03c4 25020000 		.4byte	.LLST19
 1549 03c8 09040000 		.4byte	0x409
 1550 03cc 1C       		.uleb128 0x1c
 1551 03cd 82010000 		.4byte	.LASF31
 1552 03d1 01       		.byte	0x1
 1553 03d2 4D01     		.2byte	0x14d
 1554 03d4 8D010000 		.4byte	0x18d
 1555 03d8 44020000 		.4byte	.LLST20
 1556 03dc 1C       		.uleb128 0x1c
 1557 03dd FC000000 		.4byte	.LASF32
 1558 03e1 01       		.byte	0x1
 1559 03e2 4D01     		.2byte	0x14d
 1560 03e4 8D010000 		.4byte	0x18d
 1561 03e8 57020000 		.4byte	.LLST21
 1562 03ec 1C       		.uleb128 0x1c
 1563 03ed 19000000 		.4byte	.LASF28
 1564 03f1 01       		.byte	0x1
 1565 03f2 4D01     		.2byte	0x14d
 1566 03f4 8D010000 		.4byte	0x18d
 1567 03f8 6A020000 		.4byte	.LLST22
 1568 03fc 20       		.uleb128 0x20
 1569 03fd 6900     		.ascii	"i\000"
 1570 03ff 01       		.byte	0x1
 1571 0400 4E01     		.2byte	0x14e
 1572 0402 8D010000 		.4byte	0x18d
 1573 0406 01       		.byte	0x1
 1574 0407 55       		.byte	0x55
 1575 0408 00       		.byte	0x0
 1576 0409 21       		.uleb128 0x21
 1577 040a 19040000 		.4byte	0x419
 1578 040e 19040000 		.4byte	0x419
 1579 0412 22       		.uleb128 0x22
 1580 0413 54000000 		.4byte	0x54
 1581 0417 0F       		.byte	0xf
 1582 0418 00       		.byte	0x0
 1583 0419 02       		.uleb128 0x2
 1584 041a 04       		.byte	0x4
 1585 041b 07       		.byte	0x7
 1586 041c E5000000 		.4byte	.LASF33
 1587 0420 23       		.uleb128 0x23
 1588 0421 F2000000 		.4byte	.LASF34
ARM GAS  D:\DOCUME~1\admin\LOCALS~1\Temp\cc2ORgsL.s 			page 35


 1589 0425 01       		.byte	0x1
 1590 0426 30       		.byte	0x30
 1591 0427 32040000 		.4byte	0x432
 1592 042b 01       		.byte	0x1
 1593 042c 05       		.byte	0x5
 1594 042d 03       		.byte	0x3
 1595 042e 00000000 		.4byte	SWAP_DATA
 1596 0432 1A       		.uleb128 0x1a
 1597 0433 09040000 		.4byte	0x409
 1598 0437 21       		.uleb128 0x21
 1599 0438 9B020000 		.4byte	0x29b
 1600 043c 4D040000 		.4byte	0x44d
 1601 0440 22       		.uleb128 0x22
 1602 0441 54000000 		.4byte	0x54
 1603 0445 07       		.byte	0x7
 1604 0446 22       		.uleb128 0x22
 1605 0447 54000000 		.4byte	0x54
 1606 044b 07       		.byte	0x7
 1607 044c 00       		.byte	0x0
 1608 044d 23       		.uleb128 0x23
 1609 044e D3000000 		.4byte	.LASF35
 1610 0452 01       		.byte	0x1
 1611 0453 53       		.byte	0x53
 1612 0454 5F040000 		.4byte	0x45f
 1613 0458 01       		.byte	0x1
 1614 0459 05       		.byte	0x5
 1615 045a 03       		.byte	0x3
 1616 045b 00000000 		.4byte	UserFont
 1617 045f 1A       		.uleb128 0x1a
 1618 0460 37040000 		.4byte	0x437
 1619 0464 00       		.byte	0x0
 1620              		.section	.debug_abbrev
 1621 0000 01       		.uleb128 0x1
 1622 0001 11       		.uleb128 0x11
 1623 0002 01       		.byte	0x1
 1624 0003 25       		.uleb128 0x25
 1625 0004 0E       		.uleb128 0xe
 1626 0005 13       		.uleb128 0x13
 1627 0006 0B       		.uleb128 0xb
 1628 0007 03       		.uleb128 0x3
 1629 0008 0E       		.uleb128 0xe
 1630 0009 1B       		.uleb128 0x1b
 1631 000a 0E       		.uleb128 0xe
 1632 000b 11       		.uleb128 0x11
 1633 000c 01       		.uleb128 0x1
 1634 000d 12       		.uleb128 0x12
 1635 000e 01       		.uleb128 0x1
 1636 000f 10       		.uleb128 0x10
 1637 0010 06       		.uleb128 0x6
 1638 0011 00       		.byte	0x0
 1639 0012 00       		.byte	0x0
 1640 0013 02       		.uleb128 0x2
 1641 0014 24       		.uleb128 0x24
 1642 0015 00       		.byte	0x0
 1643 0016 0B       		.uleb128 0xb
 1644 0017 0B       		.uleb128 0xb
 1645 0018 3E       		.uleb128 0x3e
ARM GAS  D:\DOCUME~1\admin\LOCALS~1\Temp\cc2ORgsL.s 			page 36


 1646 0019 0B       		.uleb128 0xb
 1647 001a 03       		.uleb128 0x3
 1648 001b 0E       		.uleb128 0xe
 1649 001c 00       		.byte	0x0
 1650 001d 00       		.byte	0x0
 1651 001e 03       		.uleb128 0x3
 1652 001f 35       		.uleb128 0x35
 1653 0020 00       		.byte	0x0
 1654 0021 49       		.uleb128 0x49
 1655 0022 13       		.uleb128 0x13
 1656 0023 00       		.byte	0x0
 1657 0024 00       		.byte	0x0
 1658 0025 04       		.uleb128 0x4
 1659 0026 24       		.uleb128 0x24
 1660 0027 00       		.byte	0x0
 1661 0028 0B       		.uleb128 0xb
 1662 0029 0B       		.uleb128 0xb
 1663 002a 3E       		.uleb128 0x3e
 1664 002b 0B       		.uleb128 0xb
 1665 002c 00       		.byte	0x0
 1666 002d 00       		.byte	0x0
 1667 002e 05       		.uleb128 0x5
 1668 002f 13       		.uleb128 0x13
 1669 0030 01       		.byte	0x1
 1670 0031 0B       		.uleb128 0xb
 1671 0032 0B       		.uleb128 0xb
 1672 0033 3A       		.uleb128 0x3a
 1673 0034 0B       		.uleb128 0xb
 1674 0035 3B       		.uleb128 0x3b
 1675 0036 05       		.uleb128 0x5
 1676 0037 01       		.uleb128 0x1
 1677 0038 13       		.uleb128 0x13
 1678 0039 00       		.byte	0x0
 1679 003a 00       		.byte	0x0
 1680 003b 06       		.uleb128 0x6
 1681 003c 0D       		.uleb128 0xd
 1682 003d 00       		.byte	0x0
 1683 003e 03       		.uleb128 0x3
 1684 003f 08       		.uleb128 0x8
 1685 0040 3A       		.uleb128 0x3a
 1686 0041 0B       		.uleb128 0xb
 1687 0042 3B       		.uleb128 0x3b
 1688 0043 05       		.uleb128 0x5
 1689 0044 49       		.uleb128 0x49
 1690 0045 13       		.uleb128 0x13
 1691 0046 38       		.uleb128 0x38
 1692 0047 0A       		.uleb128 0xa
 1693 0048 00       		.byte	0x0
 1694 0049 00       		.byte	0x0
 1695 004a 07       		.uleb128 0x7
 1696 004b 0D       		.uleb128 0xd
 1697 004c 00       		.byte	0x0
 1698 004d 03       		.uleb128 0x3
 1699 004e 0E       		.uleb128 0xe
 1700 004f 3A       		.uleb128 0x3a
 1701 0050 0B       		.uleb128 0xb
 1702 0051 3B       		.uleb128 0x3b
ARM GAS  D:\DOCUME~1\admin\LOCALS~1\Temp\cc2ORgsL.s 			page 37


 1703 0052 05       		.uleb128 0x5
 1704 0053 49       		.uleb128 0x49
 1705 0054 13       		.uleb128 0x13
 1706 0055 38       		.uleb128 0x38
 1707 0056 0A       		.uleb128 0xa
 1708 0057 00       		.byte	0x0
 1709 0058 00       		.byte	0x0
 1710 0059 08       		.uleb128 0x8
 1711 005a 2E       		.uleb128 0x2e
 1712 005b 01       		.byte	0x1
 1713 005c 03       		.uleb128 0x3
 1714 005d 0E       		.uleb128 0xe
 1715 005e 3A       		.uleb128 0x3a
 1716 005f 0B       		.uleb128 0xb
 1717 0060 3B       		.uleb128 0x3b
 1718 0061 0B       		.uleb128 0xb
 1719 0062 27       		.uleb128 0x27
 1720 0063 0C       		.uleb128 0xc
 1721 0064 11       		.uleb128 0x11
 1722 0065 01       		.uleb128 0x1
 1723 0066 12       		.uleb128 0x12
 1724 0067 01       		.uleb128 0x1
 1725 0068 40       		.uleb128 0x40
 1726 0069 0A       		.uleb128 0xa
 1727 006a 01       		.uleb128 0x1
 1728 006b 13       		.uleb128 0x13
 1729 006c 00       		.byte	0x0
 1730 006d 00       		.byte	0x0
 1731 006e 09       		.uleb128 0x9
 1732 006f 05       		.uleb128 0x5
 1733 0070 00       		.byte	0x0
 1734 0071 03       		.uleb128 0x3
 1735 0072 08       		.uleb128 0x8
 1736 0073 3A       		.uleb128 0x3a
 1737 0074 0B       		.uleb128 0xb
 1738 0075 3B       		.uleb128 0x3b
 1739 0076 0B       		.uleb128 0xb
 1740 0077 49       		.uleb128 0x49
 1741 0078 13       		.uleb128 0x13
 1742 0079 02       		.uleb128 0x2
 1743 007a 0A       		.uleb128 0xa
 1744 007b 00       		.byte	0x0
 1745 007c 00       		.byte	0x0
 1746 007d 0A       		.uleb128 0xa
 1747 007e 24       		.uleb128 0x24
 1748 007f 00       		.byte	0x0
 1749 0080 0B       		.uleb128 0xb
 1750 0081 0B       		.uleb128 0xb
 1751 0082 3E       		.uleb128 0x3e
 1752 0083 0B       		.uleb128 0xb
 1753 0084 03       		.uleb128 0x3
 1754 0085 08       		.uleb128 0x8
 1755 0086 00       		.byte	0x0
 1756 0087 00       		.byte	0x0
 1757 0088 0B       		.uleb128 0xb
 1758 0089 2E       		.uleb128 0x2e
 1759 008a 01       		.byte	0x1
ARM GAS  D:\DOCUME~1\admin\LOCALS~1\Temp\cc2ORgsL.s 			page 38


 1760 008b 03       		.uleb128 0x3
 1761 008c 0E       		.uleb128 0xe
 1762 008d 3A       		.uleb128 0x3a
 1763 008e 0B       		.uleb128 0xb
 1764 008f 3B       		.uleb128 0x3b
 1765 0090 0B       		.uleb128 0xb
 1766 0091 27       		.uleb128 0x27
 1767 0092 0C       		.uleb128 0xc
 1768 0093 49       		.uleb128 0x49
 1769 0094 13       		.uleb128 0x13
 1770 0095 20       		.uleb128 0x20
 1771 0096 0B       		.uleb128 0xb
 1772 0097 01       		.uleb128 0x1
 1773 0098 13       		.uleb128 0x13
 1774 0099 00       		.byte	0x0
 1775 009a 00       		.byte	0x0
 1776 009b 0C       		.uleb128 0xc
 1777 009c 34       		.uleb128 0x34
 1778 009d 00       		.byte	0x0
 1779 009e 03       		.uleb128 0x3
 1780 009f 0E       		.uleb128 0xe
 1781 00a0 3A       		.uleb128 0x3a
 1782 00a1 0B       		.uleb128 0xb
 1783 00a2 3B       		.uleb128 0x3b
 1784 00a3 0B       		.uleb128 0xb
 1785 00a4 49       		.uleb128 0x49
 1786 00a5 13       		.uleb128 0x13
 1787 00a6 00       		.byte	0x0
 1788 00a7 00       		.byte	0x0
 1789 00a8 0D       		.uleb128 0xd
 1790 00a9 2E       		.uleb128 0x2e
 1791 00aa 01       		.byte	0x1
 1792 00ab 03       		.uleb128 0x3
 1793 00ac 0E       		.uleb128 0xe
 1794 00ad 3A       		.uleb128 0x3a
 1795 00ae 0B       		.uleb128 0xb
 1796 00af 3B       		.uleb128 0x3b
 1797 00b0 0B       		.uleb128 0xb
 1798 00b1 27       		.uleb128 0x27
 1799 00b2 0C       		.uleb128 0xc
 1800 00b3 49       		.uleb128 0x49
 1801 00b4 13       		.uleb128 0x13
 1802 00b5 11       		.uleb128 0x11
 1803 00b6 01       		.uleb128 0x1
 1804 00b7 12       		.uleb128 0x12
 1805 00b8 01       		.uleb128 0x1
 1806 00b9 40       		.uleb128 0x40
 1807 00ba 06       		.uleb128 0x6
 1808 00bb 01       		.uleb128 0x1
 1809 00bc 13       		.uleb128 0x13
 1810 00bd 00       		.byte	0x0
 1811 00be 00       		.byte	0x0
 1812 00bf 0E       		.uleb128 0xe
 1813 00c0 34       		.uleb128 0x34
 1814 00c1 00       		.byte	0x0
 1815 00c2 03       		.uleb128 0x3
 1816 00c3 0E       		.uleb128 0xe
ARM GAS  D:\DOCUME~1\admin\LOCALS~1\Temp\cc2ORgsL.s 			page 39


 1817 00c4 3A       		.uleb128 0x3a
 1818 00c5 0B       		.uleb128 0xb
 1819 00c6 3B       		.uleb128 0x3b
 1820 00c7 0B       		.uleb128 0xb
 1821 00c8 49       		.uleb128 0x49
 1822 00c9 13       		.uleb128 0x13
 1823 00ca 02       		.uleb128 0x2
 1824 00cb 0A       		.uleb128 0xa
 1825 00cc 00       		.byte	0x0
 1826 00cd 00       		.byte	0x0
 1827 00ce 0F       		.uleb128 0xf
 1828 00cf 1D       		.uleb128 0x1d
 1829 00d0 01       		.byte	0x1
 1830 00d1 31       		.uleb128 0x31
 1831 00d2 13       		.uleb128 0x13
 1832 00d3 11       		.uleb128 0x11
 1833 00d4 01       		.uleb128 0x1
 1834 00d5 12       		.uleb128 0x12
 1835 00d6 01       		.uleb128 0x1
 1836 00d7 58       		.uleb128 0x58
 1837 00d8 0B       		.uleb128 0xb
 1838 00d9 59       		.uleb128 0x59
 1839 00da 0B       		.uleb128 0xb
 1840 00db 00       		.byte	0x0
 1841 00dc 00       		.byte	0x0
 1842 00dd 10       		.uleb128 0x10
 1843 00de 0B       		.uleb128 0xb
 1844 00df 01       		.byte	0x1
 1845 00e0 11       		.uleb128 0x11
 1846 00e1 01       		.uleb128 0x1
 1847 00e2 12       		.uleb128 0x12
 1848 00e3 01       		.uleb128 0x1
 1849 00e4 00       		.byte	0x0
 1850 00e5 00       		.byte	0x0
 1851 00e6 11       		.uleb128 0x11
 1852 00e7 34       		.uleb128 0x34
 1853 00e8 00       		.byte	0x0
 1854 00e9 31       		.uleb128 0x31
 1855 00ea 13       		.uleb128 0x13
 1856 00eb 00       		.byte	0x0
 1857 00ec 00       		.byte	0x0
 1858 00ed 12       		.uleb128 0x12
 1859 00ee 2E       		.uleb128 0x2e
 1860 00ef 01       		.byte	0x1
 1861 00f0 3F       		.uleb128 0x3f
 1862 00f1 0C       		.uleb128 0xc
 1863 00f2 03       		.uleb128 0x3
 1864 00f3 0E       		.uleb128 0xe
 1865 00f4 3A       		.uleb128 0x3a
 1866 00f5 0B       		.uleb128 0xb
 1867 00f6 3B       		.uleb128 0x3b
 1868 00f7 0B       		.uleb128 0xb
 1869 00f8 27       		.uleb128 0x27
 1870 00f9 0C       		.uleb128 0xc
 1871 00fa 11       		.uleb128 0x11
 1872 00fb 01       		.uleb128 0x1
 1873 00fc 12       		.uleb128 0x12
ARM GAS  D:\DOCUME~1\admin\LOCALS~1\Temp\cc2ORgsL.s 			page 40


 1874 00fd 01       		.uleb128 0x1
 1875 00fe 40       		.uleb128 0x40
 1876 00ff 06       		.uleb128 0x6
 1877 0100 01       		.uleb128 0x1
 1878 0101 13       		.uleb128 0x13
 1879 0102 00       		.byte	0x0
 1880 0103 00       		.byte	0x0
 1881 0104 13       		.uleb128 0x13
 1882 0105 05       		.uleb128 0x5
 1883 0106 00       		.byte	0x0
 1884 0107 03       		.uleb128 0x3
 1885 0108 08       		.uleb128 0x8
 1886 0109 3A       		.uleb128 0x3a
 1887 010a 0B       		.uleb128 0xb
 1888 010b 3B       		.uleb128 0x3b
 1889 010c 0B       		.uleb128 0xb
 1890 010d 49       		.uleb128 0x49
 1891 010e 13       		.uleb128 0x13
 1892 010f 02       		.uleb128 0x2
 1893 0110 06       		.uleb128 0x6
 1894 0111 00       		.byte	0x0
 1895 0112 00       		.byte	0x0
 1896 0113 14       		.uleb128 0x14
 1897 0114 2E       		.uleb128 0x2e
 1898 0115 01       		.byte	0x1
 1899 0116 03       		.uleb128 0x3
 1900 0117 0E       		.uleb128 0xe
 1901 0118 3A       		.uleb128 0x3a
 1902 0119 0B       		.uleb128 0xb
 1903 011a 3B       		.uleb128 0x3b
 1904 011b 0B       		.uleb128 0xb
 1905 011c 27       		.uleb128 0x27
 1906 011d 0C       		.uleb128 0xc
 1907 011e 20       		.uleb128 0x20
 1908 011f 0B       		.uleb128 0xb
 1909 0120 01       		.uleb128 0x1
 1910 0121 13       		.uleb128 0x13
 1911 0122 00       		.byte	0x0
 1912 0123 00       		.byte	0x0
 1913 0124 15       		.uleb128 0x15
 1914 0125 05       		.uleb128 0x5
 1915 0126 00       		.byte	0x0
 1916 0127 03       		.uleb128 0x3
 1917 0128 08       		.uleb128 0x8
 1918 0129 3A       		.uleb128 0x3a
 1919 012a 0B       		.uleb128 0xb
 1920 012b 3B       		.uleb128 0x3b
 1921 012c 0B       		.uleb128 0xb
 1922 012d 49       		.uleb128 0x49
 1923 012e 13       		.uleb128 0x13
 1924 012f 00       		.byte	0x0
 1925 0130 00       		.byte	0x0
 1926 0131 16       		.uleb128 0x16
 1927 0132 05       		.uleb128 0x5
 1928 0133 00       		.byte	0x0
 1929 0134 31       		.uleb128 0x31
 1930 0135 13       		.uleb128 0x13
ARM GAS  D:\DOCUME~1\admin\LOCALS~1\Temp\cc2ORgsL.s 			page 41


 1931 0136 00       		.byte	0x0
 1932 0137 00       		.byte	0x0
 1933 0138 17       		.uleb128 0x17
 1934 0139 34       		.uleb128 0x34
 1935 013a 00       		.byte	0x0
 1936 013b 03       		.uleb128 0x3
 1937 013c 08       		.uleb128 0x8
 1938 013d 3A       		.uleb128 0x3a
 1939 013e 0B       		.uleb128 0xb
 1940 013f 3B       		.uleb128 0x3b
 1941 0140 0B       		.uleb128 0xb
 1942 0141 49       		.uleb128 0x49
 1943 0142 13       		.uleb128 0x13
 1944 0143 02       		.uleb128 0x2
 1945 0144 0A       		.uleb128 0xa
 1946 0145 00       		.byte	0x0
 1947 0146 00       		.byte	0x0
 1948 0147 18       		.uleb128 0x18
 1949 0148 34       		.uleb128 0x34
 1950 0149 00       		.byte	0x0
 1951 014a 03       		.uleb128 0x3
 1952 014b 08       		.uleb128 0x8
 1953 014c 3A       		.uleb128 0x3a
 1954 014d 0B       		.uleb128 0xb
 1955 014e 3B       		.uleb128 0x3b
 1956 014f 0B       		.uleb128 0xb
 1957 0150 49       		.uleb128 0x49
 1958 0151 13       		.uleb128 0x13
 1959 0152 00       		.byte	0x0
 1960 0153 00       		.byte	0x0
 1961 0154 19       		.uleb128 0x19
 1962 0155 0F       		.uleb128 0xf
 1963 0156 00       		.byte	0x0
 1964 0157 0B       		.uleb128 0xb
 1965 0158 0B       		.uleb128 0xb
 1966 0159 49       		.uleb128 0x49
 1967 015a 13       		.uleb128 0x13
 1968 015b 00       		.byte	0x0
 1969 015c 00       		.byte	0x0
 1970 015d 1A       		.uleb128 0x1a
 1971 015e 26       		.uleb128 0x26
 1972 015f 00       		.byte	0x0
 1973 0160 49       		.uleb128 0x49
 1974 0161 13       		.uleb128 0x13
 1975 0162 00       		.byte	0x0
 1976 0163 00       		.byte	0x0
 1977 0164 1B       		.uleb128 0x1b
 1978 0165 2E       		.uleb128 0x2e
 1979 0166 01       		.byte	0x1
 1980 0167 3F       		.uleb128 0x3f
 1981 0168 0C       		.uleb128 0xc
 1982 0169 03       		.uleb128 0x3
 1983 016a 0E       		.uleb128 0xe
 1984 016b 3A       		.uleb128 0x3a
 1985 016c 0B       		.uleb128 0xb
 1986 016d 3B       		.uleb128 0x3b
 1987 016e 05       		.uleb128 0x5
ARM GAS  D:\DOCUME~1\admin\LOCALS~1\Temp\cc2ORgsL.s 			page 42


 1988 016f 27       		.uleb128 0x27
 1989 0170 0C       		.uleb128 0xc
 1990 0171 11       		.uleb128 0x11
 1991 0172 01       		.uleb128 0x1
 1992 0173 12       		.uleb128 0x12
 1993 0174 01       		.uleb128 0x1
 1994 0175 40       		.uleb128 0x40
 1995 0176 06       		.uleb128 0x6
 1996 0177 01       		.uleb128 0x1
 1997 0178 13       		.uleb128 0x13
 1998 0179 00       		.byte	0x0
 1999 017a 00       		.byte	0x0
 2000 017b 1C       		.uleb128 0x1c
 2001 017c 05       		.uleb128 0x5
 2002 017d 00       		.byte	0x0
 2003 017e 03       		.uleb128 0x3
 2004 017f 0E       		.uleb128 0xe
 2005 0180 3A       		.uleb128 0x3a
 2006 0181 0B       		.uleb128 0xb
 2007 0182 3B       		.uleb128 0x3b
 2008 0183 05       		.uleb128 0x5
 2009 0184 49       		.uleb128 0x49
 2010 0185 13       		.uleb128 0x13
 2011 0186 02       		.uleb128 0x2
 2012 0187 06       		.uleb128 0x6
 2013 0188 00       		.byte	0x0
 2014 0189 00       		.byte	0x0
 2015 018a 1D       		.uleb128 0x1d
 2016 018b 34       		.uleb128 0x34
 2017 018c 00       		.byte	0x0
 2018 018d 03       		.uleb128 0x3
 2019 018e 0E       		.uleb128 0xe
 2020 018f 3A       		.uleb128 0x3a
 2021 0190 0B       		.uleb128 0xb
 2022 0191 3B       		.uleb128 0x3b
 2023 0192 05       		.uleb128 0x5
 2024 0193 49       		.uleb128 0x49
 2025 0194 13       		.uleb128 0x13
 2026 0195 00       		.byte	0x0
 2027 0196 00       		.byte	0x0
 2028 0197 1E       		.uleb128 0x1e
 2029 0198 2E       		.uleb128 0x2e
 2030 0199 00       		.byte	0x0
 2031 019a 3F       		.uleb128 0x3f
 2032 019b 0C       		.uleb128 0xc
 2033 019c 03       		.uleb128 0x3
 2034 019d 0E       		.uleb128 0xe
 2035 019e 3A       		.uleb128 0x3a
 2036 019f 0B       		.uleb128 0xb
 2037 01a0 3B       		.uleb128 0x3b
 2038 01a1 05       		.uleb128 0x5
 2039 01a2 27       		.uleb128 0x27
 2040 01a3 0C       		.uleb128 0xc
 2041 01a4 11       		.uleb128 0x11
 2042 01a5 01       		.uleb128 0x1
 2043 01a6 12       		.uleb128 0x12
 2044 01a7 01       		.uleb128 0x1
ARM GAS  D:\DOCUME~1\admin\LOCALS~1\Temp\cc2ORgsL.s 			page 43


 2045 01a8 40       		.uleb128 0x40
 2046 01a9 06       		.uleb128 0x6
 2047 01aa 00       		.byte	0x0
 2048 01ab 00       		.byte	0x0
 2049 01ac 1F       		.uleb128 0x1f
 2050 01ad 34       		.uleb128 0x34
 2051 01ae 00       		.byte	0x0
 2052 01af 03       		.uleb128 0x3
 2053 01b0 08       		.uleb128 0x8
 2054 01b1 3A       		.uleb128 0x3a
 2055 01b2 0B       		.uleb128 0xb
 2056 01b3 3B       		.uleb128 0x3b
 2057 01b4 05       		.uleb128 0x5
 2058 01b5 49       		.uleb128 0x49
 2059 01b6 13       		.uleb128 0x13
 2060 01b7 02       		.uleb128 0x2
 2061 01b8 06       		.uleb128 0x6
 2062 01b9 00       		.byte	0x0
 2063 01ba 00       		.byte	0x0
 2064 01bb 20       		.uleb128 0x20
 2065 01bc 34       		.uleb128 0x34
 2066 01bd 00       		.byte	0x0
 2067 01be 03       		.uleb128 0x3
 2068 01bf 08       		.uleb128 0x8
 2069 01c0 3A       		.uleb128 0x3a
 2070 01c1 0B       		.uleb128 0xb
 2071 01c2 3B       		.uleb128 0x3b
 2072 01c3 05       		.uleb128 0x5
 2073 01c4 49       		.uleb128 0x49
 2074 01c5 13       		.uleb128 0x13
 2075 01c6 02       		.uleb128 0x2
 2076 01c7 0A       		.uleb128 0xa
 2077 01c8 00       		.byte	0x0
 2078 01c9 00       		.byte	0x0
 2079 01ca 21       		.uleb128 0x21
 2080 01cb 01       		.uleb128 0x1
 2081 01cc 01       		.byte	0x1
 2082 01cd 49       		.uleb128 0x49
 2083 01ce 13       		.uleb128 0x13
 2084 01cf 01       		.uleb128 0x1
 2085 01d0 13       		.uleb128 0x13
 2086 01d1 00       		.byte	0x0
 2087 01d2 00       		.byte	0x0
 2088 01d3 22       		.uleb128 0x22
 2089 01d4 21       		.uleb128 0x21
 2090 01d5 00       		.byte	0x0
 2091 01d6 49       		.uleb128 0x49
 2092 01d7 13       		.uleb128 0x13
 2093 01d8 2F       		.uleb128 0x2f
 2094 01d9 0B       		.uleb128 0xb
 2095 01da 00       		.byte	0x0
 2096 01db 00       		.byte	0x0
 2097 01dc 23       		.uleb128 0x23
 2098 01dd 34       		.uleb128 0x34
 2099 01de 00       		.byte	0x0
 2100 01df 03       		.uleb128 0x3
 2101 01e0 0E       		.uleb128 0xe
ARM GAS  D:\DOCUME~1\admin\LOCALS~1\Temp\cc2ORgsL.s 			page 44


 2102 01e1 3A       		.uleb128 0x3a
 2103 01e2 0B       		.uleb128 0xb
 2104 01e3 3B       		.uleb128 0x3b
 2105 01e4 0B       		.uleb128 0xb
 2106 01e5 49       		.uleb128 0x49
 2107 01e6 13       		.uleb128 0x13
 2108 01e7 3F       		.uleb128 0x3f
 2109 01e8 0C       		.uleb128 0xc
 2110 01e9 02       		.uleb128 0x2
 2111 01ea 0A       		.uleb128 0xa
 2112 01eb 00       		.byte	0x0
 2113 01ec 00       		.byte	0x0
 2114 01ed 00       		.byte	0x0
 2115              		.section	.debug_pubnames,"",%progbits
 2116 0000 BA000000 		.4byte	0xba
 2117 0004 0200     		.2byte	0x2
 2118 0006 00000000 		.4byte	.Ldebug_info0
 2119 000a 65040000 		.4byte	0x465
 2120 000e FA010000 		.4byte	0x1fa
 2121 0012 6C63645F 		.ascii	"lcd_write_4bit\000"
 2121      77726974 
 2121      655F3462 
 2121      697400
 2122 0021 21020000 		.4byte	0x221
 2123 0025 6C63645F 		.ascii	"lcd_write_cmd\000"
 2123      77726974 
 2123      655F636D 
 2123      6400
 2124 0033 5F020000 		.4byte	0x25f
 2125 0037 6C63645F 		.ascii	"lcd_putchar\000"
 2125      70757463 
 2125      68617200 
 2126 0043 A2020000 		.4byte	0x2a2
 2127 0047 6C63645F 		.ascii	"lcd_init\000"
 2127      696E6974 
 2127      00
 2128 0050 DB020000 		.4byte	0x2db
 2129 0054 7365745F 		.ascii	"set_cursor\000"
 2129      63757273 
 2129      6F7200
 2130 005f 22030000 		.4byte	0x322
 2131 0063 6C63645F 		.ascii	"lcd_clear\000"
 2131      636C6561 
 2131      7200
 2132 006d 38030000 		.4byte	0x338
 2133 0071 6C63645F 		.ascii	"lcd_print\000"
 2133      7072696E 
 2133      7400
 2134 007b 69030000 		.4byte	0x369
 2135 007f 6C63645F 		.ascii	"lcd_bargraph\000"
 2135      62617267 
 2135      72617068 
 2135      00
 2136 008c B2030000 		.4byte	0x3b2
 2137 0090 6C63645F 		.ascii	"lcd_bargraphXY\000"
 2137      62617267 
 2137      72617068 
ARM GAS  D:\DOCUME~1\admin\LOCALS~1\Temp\cc2ORgsL.s 			page 45


 2137      585900
 2138 009f 20040000 		.4byte	0x420
 2139 00a3 53574150 		.ascii	"SWAP_DATA\000"
 2139      5F444154 
 2139      4100
 2140 00ad 4D040000 		.4byte	0x44d
 2141 00b1 55736572 		.ascii	"UserFont\000"
 2141      466F6E74 
 2141      00
 2142 00ba 00000000 		.4byte	0x0
 2143              		.section	.debug_aranges,"",%progbits
 2144 0000 1C000000 		.4byte	0x1c
 2145 0004 0200     		.2byte	0x2
 2146 0006 00000000 		.4byte	.Ldebug_info0
 2147 000a 04       		.byte	0x4
 2148 000b 00       		.byte	0x0
 2149 000c 0000     		.2byte	0x0
 2150 000e 0000     		.2byte	0x0
 2151 0010 00000000 		.4byte	.Ltext0
 2152 0014 06030000 		.4byte	.Letext0-.Ltext0
 2153 0018 00000000 		.4byte	0x0
 2154 001c 00000000 		.4byte	0x0
 2155              		.section	.debug_str,"MS",%progbits,1
 2156              	.LASF12:
 2157 0000 41504232 		.ascii	"APB2ENR\000"
 2157      454E5200 
 2158              	.LASF14:
 2159 0008 42444352 		.ascii	"BDCR\000"
 2159      00
 2160              	.LASF8:
 2161 000d 43464752 		.ascii	"CFGR\000"
 2161      00
 2162              	.LASF11:
 2163 0012 41484245 		.ascii	"AHBENR\000"
 2163      4E5200
 2164              	.LASF28:
 2165 0019 76616C75 		.ascii	"value\000"
 2165      6500
 2166              	.LASF6:
 2167 001f 42535252 		.ascii	"BSRR\000"
 2167      00
 2168              	.LASF4:
 2169 0024 73686F72 		.ascii	"short unsigned int\000"
 2169      7420756E 
 2169      7369676E 
 2169      65642069 
 2169      6E7400
 2170              	.LASF20:
 2171 0037 73746174 		.ascii	"status\000"
 2171      757300
 2172              	.LASF26:
 2173 003e 73747269 		.ascii	"string\000"
 2173      6E6700
 2174              	.LASF10:
 2175 0045 41504231 		.ascii	"APB1RSTR\000"
 2175      52535452 
 2175      00
ARM GAS  D:\DOCUME~1\admin\LOCALS~1\Temp\cc2ORgsL.s 			page 46


 2176              	.LASF23:
 2177 004e 6C696E65 		.ascii	"line\000"
 2177      00
 2178              	.LASF29:
 2179 0053 73697A65 		.ascii	"size\000"
 2179      00
 2180              	.LASF17:
 2181 0058 6C63645F 		.ascii	"lcd_putchar\000"
 2181      70757463 
 2181      68617200 
 2182              	.LASF15:
 2183 0064 6C63645F 		.ascii	"lcd_write_4bit\000"
 2183      77726974 
 2183      655F3462 
 2183      697400
 2184              	.LASF27:
 2185 0073 6C63645F 		.ascii	"lcd_bargraph\000"
 2185      62617267 
 2185      72617068 
 2185      00
 2186              	.LASF22:
 2187 0080 636F6C75 		.ascii	"column\000"
 2187      6D6E00
 2188              	.LASF37:
 2189 0087 4C43445F 		.ascii	"LCD_4bit.c\000"
 2189      34626974 
 2189      2E6300
 2190              	.LASF5:
 2191 0092 756E7369 		.ascii	"unsigned char\000"
 2191      676E6564 
 2191      20636861 
 2191      7200
 2192              	.LASF3:
 2193 00a0 6C6F6E67 		.ascii	"long unsigned int\000"
 2193      20756E73 
 2193      69676E65 
 2193      6420696E 
 2193      7400
 2194              	.LASF16:
 2195 00b2 6C63645F 		.ascii	"lcd_write_cmd\000"
 2195      77726974 
 2195      655F636D 
 2195      6400
 2196              	.LASF21:
 2197 00c0 7365745F 		.ascii	"set_cursor\000"
 2197      63757273 
 2197      6F7200
 2198              	.LASF13:
 2199 00cb 41504231 		.ascii	"APB1ENR\000"
 2199      454E5200 
 2200              	.LASF35:
 2201 00d3 55736572 		.ascii	"UserFont\000"
 2201      466F6E74 
 2201      00
 2202              	.LASF9:
 2203 00dc 41504232 		.ascii	"APB2RSTR\000"
 2203      52535452 
ARM GAS  D:\DOCUME~1\admin\LOCALS~1\Temp\cc2ORgsL.s 			page 47


 2203      00
 2204              	.LASF33:
 2205 00e5 756E7369 		.ascii	"unsigned int\000"
 2205      676E6564 
 2205      20696E74 
 2205      00
 2206              	.LASF34:
 2207 00f2 53574150 		.ascii	"SWAP_DATA\000"
 2207      5F444154 
 2207      4100
 2208              	.LASF32:
 2209 00fc 706F735F 		.ascii	"pos_y\000"
 2209      7900
 2210              	.LASF24:
 2211 0102 61646472 		.ascii	"address\000"
 2211      65737300 
 2212              	.LASF18:
 2213 010a 63686172 		.ascii	"char\000"
 2213      00
 2214              	.LASF30:
 2215 010f 6C63645F 		.ascii	"lcd_bargraphXY\000"
 2215      62617267 
 2215      72617068 
 2215      585900
 2216              	.LASF36:
 2217 011e 474E5520 		.ascii	"GNU C 4.3.3\000"
 2217      4320342E 
 2217      332E3300 
 2218              	.LASF25:
 2219 012a 6C63645F 		.ascii	"lcd_print\000"
 2219      7072696E 
 2219      7400
 2220              	.LASF38:
 2221 0134 4A3A5C61 		.ascii	"J:\\acco\\zipzap\\cortex_dev\\projets\\ap note 199\\"
 2221      63636F5C 
 2221      7A69707A 
 2221      61705C63 
 2221      6F727465 
 2222 0162 41504E31 		.ascii	"APN199_Examples\\MCBSTM32_Blinky\000"
 2222      39395F45 
 2222      78616D70 
 2222      6C65735C 
 2222      4D434253 
 2223              	.LASF31:
 2224 0182 706F735F 		.ascii	"pos_x\000"
 2224      7800
 2225              	.LASF39:
 2226 0188 64656C61 		.ascii	"delay\000"
 2226      7900
 2227              	.LASF41:
 2228 018e 77616974 		.ascii	"wait_while_busy\000"
 2228      5F776869 
 2228      6C655F62 
 2228      75737900 
 2229              	.LASF19:
 2230 019e 6C63645F 		.ascii	"lcd_init\000"
 2230      696E6974 
ARM GAS  D:\DOCUME~1\admin\LOCALS~1\Temp\cc2ORgsL.s 			page 48


 2230      00
 2231              	.LASF1:
 2232 01a7 73686F72 		.ascii	"short int\000"
 2232      7420696E 
 2232      7400
 2233              	.LASF40:
 2234 01b1 6C63645F 		.ascii	"lcd_read_status\000"
 2234      72656164 
 2234      5F737461 
 2234      74757300 
 2235              	.LASF0:
 2236 01c1 6C6F6E67 		.ascii	"long int\000"
 2236      20696E74 
 2236      00
 2237              	.LASF2:
 2238 01ca 7369676E 		.ascii	"signed char\000"
 2238      65642063 
 2238      68617200 
 2239              	.LASF43:
 2240 01d6 6C63645F 		.ascii	"lcd_clear\000"
 2240      636C6561 
 2240      7200
 2241              	.LASF7:
 2242 01e0 4C434B52 		.ascii	"LCKR\000"
 2242      00
 2243              	.LASF42:
 2244 01e5 6C63645F 		.ascii	"lcd_write_data\000"
 2244      77726974 
 2244      655F6461 
 2244      746100
 2245              		.ident	"GCC: (Sourcery G++ Lite 2009q1-161) 4.3.3"
ARM GAS  D:\DOCUME~1\admin\LOCALS~1\Temp\cc2ORgsL.s 			page 49


DEFINED SYMBOLS
                            *ABS*:00000000 LCD_4bit.c
D:\DOCUME~1\admin\LOCALS~1\Temp\cc2ORgsL.s:22     .text:00000000 $t
D:\DOCUME~1\admin\LOCALS~1\Temp\cc2ORgsL.s:26     .text:00000000 delay
D:\DOCUME~1\admin\LOCALS~1\Temp\cc2ORgsL.s:42     .text:00000004 wait_while_busy
D:\DOCUME~1\admin\LOCALS~1\Temp\cc2ORgsL.s:545    .rodata:00000000 .LANCHOR0
D:\DOCUME~1\admin\LOCALS~1\Temp\cc2ORgsL.s:137    .text:000000b4 lcd_write_4bit
D:\DOCUME~1\admin\LOCALS~1\Temp\cc2ORgsL.s:184    .text:00000104 lcd_write_cmd
D:\DOCUME~1\admin\LOCALS~1\Temp\cc2ORgsL.s:217    .text:0000012c lcd_putchar
D:\DOCUME~1\admin\LOCALS~1\Temp\cc2ORgsL.s:254    .text:00000154 lcd_init
D:\DOCUME~1\admin\LOCALS~1\Temp\cc2ORgsL.s:344    .text:00000220 set_cursor
D:\DOCUME~1\admin\LOCALS~1\Temp\cc2ORgsL.s:370    .text:00000238 lcd_clear
D:\DOCUME~1\admin\LOCALS~1\Temp\cc2ORgsL.s:393    .text:00000250 lcd_print
D:\DOCUME~1\admin\LOCALS~1\Temp\cc2ORgsL.s:426    .text:00000268 lcd_bargraph
D:\DOCUME~1\admin\LOCALS~1\Temp\cc2ORgsL.s:491    .text:000002bc lcd_bargraphXY
D:\DOCUME~1\admin\LOCALS~1\Temp\cc2ORgsL.s:548    .rodata:00000000 SWAP_DATA
D:\DOCUME~1\admin\LOCALS~1\Temp\cc2ORgsL.s:567    .rodata:00000040 UserFont
D:\DOCUME~1\admin\LOCALS~1\Temp\cc2ORgsL.s:544    .rodata:00000000 $d
D:\DOCUME~1\admin\LOCALS~1\Temp\cc2ORgsL.s:848    .debug_loc:00000000 $d
D:\DOCUME~1\admin\LOCALS~1\Temp\cc2ORgsL.s:845    .text:00000306 $t

NO UNDEFINED SYMBOLS
