ARM GAS  D:\DOCUME~1\admin\LOCALS~1\Temp\cccXdZBs.s 			page 1


   1              		.syntax unified
   2              		.cpu cortex-m3
   3              		.fpu softvfp
   4              		.eabi_attribute 20, 1
   5              		.eabi_attribute 21, 1
   6              		.eabi_attribute 23, 3
   7              		.eabi_attribute 24, 1
   8              		.eabi_attribute 25, 1
   9              		.eabi_attribute 26, 1
  10              		.eabi_attribute 30, 1
  11              		.eabi_attribute 18, 4
  12              		.thumb
  13              		.file	"Blinky.c"
  20 0000 A6000000 		.text
  20      02006100 
  20      00000201 
  20      FB0E0D00 
  20      01010101 
  21              	.Ltext0:
  22              		.align	2
  23              		.global	adc_Init
  24              		.thumb
  25              		.thumb_func
  26              		.type	adc_Init, %function
  27              	adc_Init:
  28              	.LFB2:
  29              		.file 1 "Blinky.c"
   1:Blinky.c      **** /*----------------------------------------------------------------------------
   2:Blinky.c      ****  * Name:    Blinky.c
   3:Blinky.c      ****  * Purpose: LED Flasher for STM32
   4:Blinky.c      ****  * Version: V1.00
   5:Blinky.c      ****  *----------------------------------------------------------------------------
   6:Blinky.c      ****  * This file is part of the uVision/ARM development tools.
   7:Blinky.c      ****  * This software may only be used under the terms of a valid, current,
   8:Blinky.c      ****  * end user licence from KEIL for a compatible version of KEIL software
   9:Blinky.c      ****  * development tools. Nothing else gives you the right to use this software.
  10:Blinky.c      ****  *
  11:Blinky.c      ****  * Copyright (c) 2005-2007 Keil Software. All rights reserved.
  12:Blinky.c      ****  *----------------------------------------------------------------------------*/
  13:Blinky.c      **** 
  14:Blinky.c      **** #include <stdio.h>
  15:Blinky.c      **** #include <stm32f10x_lib.h>                        // STM32F10x Library Definitions
  16:Blinky.c      **** #include "STM32_Init.h"                           // STM32 Initialization
  17:Blinky.c      **** #include "LCD.h"                                  // LCD function prototypes
  18:Blinky.c      **** 
  19:Blinky.c      **** 
  20:Blinky.c      **** unsigned short int  ADC_ConvertedValue;
  21:Blinky.c      **** unsigned       char Clock1s;
  22:Blinky.c      **** 
  23:Blinky.c      **** char str[] = "Toto";
  24:Blinky.c      **** unsigned char essai = 4;
ARM GAS  D:\DOCUME~1\admin\LOCALS~1\Temp\cccXdZBs.s 			page 2


  25:Blinky.c      **** /*------------------------------------------------------------------------------
  26:Blinky.c      ****   Initialises the Analog/Digital converter
  27:Blinky.c      ****   PA1 (ADC Channel1) is used as analog input
  28:Blinky.c      ****   use DMA Channel1 for ADC1 (see DMA request mapping)
  29:Blinky.c      ****  *------------------------------------------------------------------------------*/
  30:Blinky.c      **** void adc_Init (void) {
  30              		.loc 1 30 0
  31              		@ args = 0, pretend = 0, frame = 0
  32              		@ frame_needed = 0, uses_anonymous_args = 0
  33              		@ link register save eliminated.
  31:Blinky.c      **** 
  32:Blinky.c      **** //  GPIOA->CRL &= ~0x0000000F;                    // set PIN1 as analog input (see stm32_Init.c)
  33:Blinky.c      **** 
  34:Blinky.c      ****   RCC->AHBENR |= (1<<0);                          // enable periperal clock for DMA
  34              		.loc 1 34 0
  35 0000 41F20001 		movw	r1, #:lower16:1073876992
  36 0004 C4F20201 		movt	r1, #:upper16:1073876992
  37 0008 4B69     		ldr	r3, [r1, #20]
  38 000a 43F00103 		orr	r3, r3, #1
  39 000e 4B61     		str	r3, [r1, #20]
  35:Blinky.c      **** 
  36:Blinky.c      ****   DMA1_Channel1->CMAR  = (u32)&ADC_ConvertedValue;// set channel1 memory address
  40              		.loc 1 36 0
  41 0010 40F20003 		movw	r3, #:lower16:ADC_ConvertedValue
  42 0014 C0F20003 		movt	r3, #:upper16:ADC_ConvertedValue
  43 0018 40F20802 		movw	r2, #:lower16:1073872904
  44 001c C4F20202 		movt	r2, #:upper16:1073872904
  45 0020 D360     		str	r3, [r2, #12]
  37:Blinky.c      ****   DMA1_Channel1->CPAR  = (u32)&(ADC1->DR);        // set channel1 peripheral address
  46              		.loc 1 37 0
  47 0022 42F24C43 		movw	r3, #:lower16:1073816652
  48 0026 C4F20103 		movt	r3, #:upper16:1073816652
  49 002a 9360     		str	r3, [r2, #8]
  38:Blinky.c      ****   DMA1_Channel1->CNDTR = 1;                       // transmit 1 word
  50              		.loc 1 38 0
  51 002c 4FF00103 		mov	r3, #1
  52 0030 5360     		str	r3, [r2, #4]
  39:Blinky.c      ****   DMA1_Channel1->CCR   = 0x00002520;              // configure DMA channel
  53              		.loc 1 39 0
  54 0032 42F22053 		movw	r3, #9504
  55 0036 1360     		str	r3, [r2, #0]
  40:Blinky.c      ****   DMA1_Channel1->CCR  |= (1 << 0);                // DMA Channel 1 enable
  56              		.loc 1 40 0
  57 0038 1368     		ldr	r3, [r2, #0]
  58 003a 43F00103 		orr	r3, r3, #1
  59 003e 1360     		str	r3, [r2, #0]
  41:Blinky.c      **** 
  42:Blinky.c      **** 
  43:Blinky.c      ****   RCC->APB2ENR |= (1<<9);                         // enable periperal clock for ADC1
  60              		.loc 1 43 0
  61 0040 8B69     		ldr	r3, [r1, #24]
  62 0042 43F40073 		orr	r3, r3, #512
  63 0046 8B61     		str	r3, [r1, #24]
  44:Blinky.c      **** 
  45:Blinky.c      ****   ADC1->SQR1 &= ~0x00F00000;                      // only one conversion
  64              		.loc 1 45 0
  65 0048 42F20042 		movw	r2, #:lower16:1073816576
ARM GAS  D:\DOCUME~1\admin\LOCALS~1\Temp\cccXdZBs.s 			page 3


  66 004c C4F20102 		movt	r2, #:upper16:1073816576
  67 0050 D36A     		ldr	r3, [r2, #44]
  68 0052 23F47003 		bic	r3, r3, #15728640
  69 0056 D362     		str	r3, [r2, #44]
  46:Blinky.c      **** 
  47:Blinky.c      ****   ADC1->SMPR2 &= 0x00000038;                      // clear bits 3..5 (channel1)
  70              		.loc 1 47 0
  71 0058 1369     		ldr	r3, [r2, #16]
  72 005a 03F03803 		and	r3, r3, #56
  73 005e 1361     		str	r3, [r2, #16]
  48:Blinky.c      ****   ADC1->SMPR2 |= 0x00000028;                      // set sample time (55,5 cycles)
  74              		.loc 1 48 0
  75 0060 1369     		ldr	r3, [r2, #16]
  76 0062 43F02803 		orr	r3, r3, #40
  77 0066 1361     		str	r3, [r2, #16]
  49:Blinky.c      **** 
  50:Blinky.c      ****   ADC1->SQR3  &= 0x0000001F;                      // clear bits 0..4
  78              		.loc 1 50 0
  79 0068 536B     		ldr	r3, [r2, #52]
  80 006a 03F01F03 		and	r3, r3, #31
  81 006e 5363     		str	r3, [r2, #52]
  51:Blinky.c      ****   ADC1->SQR3  |= 0x00000001;                      // set rank
  82              		.loc 1 51 0
  83 0070 536B     		ldr	r3, [r2, #52]
  84 0072 43F00103 		orr	r3, r3, #1
  85 0076 5363     		str	r3, [r2, #52]
  52:Blinky.c      **** 
  53:Blinky.c      ****   ADC1->CR1   =  0x00000100;                      // use independant mode, SCAN mode
  86              		.loc 1 53 0
  87 0078 4FF48073 		mov	r3, #256
  88 007c 5360     		str	r3, [r2, #4]
  54:Blinky.c      ****   ADC1->CR2   =  0x000E0103;                      // use data align right,continuous conversion
  89              		.loc 1 54 0
  90 007e 40F20313 		movw	r3, #:lower16:917763
  91 0082 C0F20E03 		movt	r3, #:upper16:917763
  92 0086 9360     		str	r3, [r2, #8]
  55:Blinky.c      ****                                                   // EXTSEL = SWSTART 
  56:Blinky.c      ****                                                   // enable ADC, DMA mode, no external Trigger
  57:Blinky.c      ****   ADC1->CR2  |=  0x00500000;					  // start SW conversion
  93              		.loc 1 57 0
  94 0088 9368     		ldr	r3, [r2, #8]
  95 008a 43F4A003 		orr	r3, r3, #5242880
  96 008e 9360     		str	r3, [r2, #8]
  58:Blinky.c      **** }
  97              		.loc 1 58 0
  98 0090 7047     		bx	lr
  99              	.LFE2:
 100              		.size	adc_Init, .-adc_Init
 101 0092 00BF     		.align	2
 102              		.global	SysTick_Handler
 103              		.thumb
 104              		.thumb_func
 105              		.type	SysTick_Handler, %function
 106              	SysTick_Handler:
 107              	.LFB3:
  59:Blinky.c      **** 
  60:Blinky.c      **** /*------------------------------------------------------------------------------
ARM GAS  D:\DOCUME~1\admin\LOCALS~1\Temp\cccXdZBs.s 			page 4


  61:Blinky.c      ****   Systick Interrupt Handler
  62:Blinky.c      ****   SysTick interrupt happens every 10 ms
  63:Blinky.c      ****  *------------------------------------------------------------------------------*/
  64:Blinky.c      **** void SysTick_Handler (void) {
 108              		.loc 1 64 0
 109              		@ args = 0, pretend = 0, frame = 0
 110              		@ frame_needed = 0, uses_anonymous_args = 0
 111              		@ link register save eliminated.
  65:Blinky.c      ****   static unsigned long ticks;
  66:Blinky.c      ****   static unsigned long timetick;
  67:Blinky.c      ****   static unsigned char leds = 0x01;
  68:Blinky.c      **** 
  69:Blinky.c      ****   if (ticks++ >= 99) {                           // Set Clock1s to 1 every 1 second
 112              		.loc 1 69 0
 113 0094 40F20003 		movw	r3, #:lower16:.LANCHOR0
 114 0098 C0F20003 		movt	r3, #:upper16:.LANCHOR0
 115 009c 1968     		ldr	r1, [r3, #0]
 116 009e 01F10102 		add	r2, r1, #1
 117 00a2 1A60     		str	r2, [r3, #0]
 118 00a4 6229     		cmp	r1, #98
 119 00a6 0DD9     		bls	.L4
  70:Blinky.c      ****     ticks   = 0;
 120              		.loc 1 70 0
 121 00a8 40F20003 		movw	r3, #:lower16:.LANCHOR0
 122 00ac C0F20003 		movt	r3, #:upper16:.LANCHOR0
 123 00b0 4FF00002 		mov	r2, #0
 124 00b4 1A60     		str	r2, [r3, #0]
  71:Blinky.c      ****     Clock1s = 1;
 125              		.loc 1 71 0
 126 00b6 40F20003 		movw	r3, #:lower16:Clock1s
 127 00ba C0F20003 		movt	r3, #:upper16:Clock1s
 128 00be 4FF00102 		mov	r2, #1
 129 00c2 1A70     		strb	r2, [r3, #0]
 130              	.L4:
  72:Blinky.c      ****   }
  73:Blinky.c      ****                                                  // Blink the LEDs depending on ADC_ConvertedValue
  74:Blinky.c      ****   if (timetick++ >= (ADC_ConvertedValue>>8)) {
 131              		.loc 1 74 0
 132 00c4 40F20002 		movw	r2, #:lower16:.LANCHOR0
 133 00c8 C0F20002 		movt	r2, #:upper16:.LANCHOR0
 134 00cc 5068     		ldr	r0, [r2, #4]
 135 00ce 40F20003 		movw	r3, #:lower16:ADC_ConvertedValue
 136 00d2 C0F20003 		movt	r3, #:upper16:ADC_ConvertedValue
 137 00d6 1988     		ldrh	r1, [r3, #0]
 138 00d8 00F10103 		add	r3, r0, #1
 139 00dc 5360     		str	r3, [r2, #4]
 140 00de B0EB112F 		cmp	r0, r1, lsr #8
 141 00e2 20D3     		bcc	.L7
  75:Blinky.c      ****     timetick   = 0;
 142              		.loc 1 75 0
 143 00e4 1346     		mov	r3, r2
 144 00e6 4FF00002 		mov	r2, #0
 145 00ea 5A60     		str	r2, [r3, #4]
  76:Blinky.c      ****     leds     <<= 1;
 146              		.loc 1 76 0
 147 00ec 40F20002 		movw	r2, #:lower16:.LANCHOR1
 148 00f0 C0F20002 		movt	r2, #:upper16:.LANCHOR1
ARM GAS  D:\DOCUME~1\admin\LOCALS~1\Temp\cccXdZBs.s 			page 5


 149 00f4 1378     		ldrb	r3, [r2, #0]	@ zero_extendqisi2
 150 00f6 4FEA4303 		lsl	r3, r3, #1
 151 00fa DBB2     		uxtb	r3, r3
 152 00fc 1370     		strb	r3, [r2, #0]
  77:Blinky.c      ****     if (leds == 0) leds = 0x01;
 153              		.loc 1 77 0
 154 00fe 1BB9     		cbnz	r3, .L6
 155 0100 1346     		mov	r3, r2
 156 0102 4FF00102 		mov	r2, #1
 157 0106 1A70     		strb	r2, [r3, #0]
 158              	.L6:
  78:Blinky.c      ****     GPIOB->ODR = (GPIOB->ODR & 0xFFFF00FF) | (leds << 8);
 159              		.loc 1 78 0
 160 0108 40F60041 		movw	r1, #:lower16:1073810432
 161 010c C4F20101 		movt	r1, #:upper16:1073810432
 162 0110 CA68     		ldr	r2, [r1, #12]
 163 0112 40F20003 		movw	r3, #:lower16:.LANCHOR1
 164 0116 C0F20003 		movt	r3, #:upper16:.LANCHOR1
 165 011a 1B78     		ldrb	r3, [r3, #0]	@ zero_extendqisi2
 166 011c 22F47F42 		bic	r2, r2, #65280
 167 0120 42EA0322 		orr	r2, r2, r3, lsl #8
 168 0124 CA60     		str	r2, [r1, #12]
 169              	.L7:
  79:Blinky.c      ****   }
  80:Blinky.c      **** } // end SysTick_Handler
 170              		.loc 1 80 0
 171 0126 7047     		bx	lr
 172              	.LFE3:
 173              		.size	SysTick_Handler, .-SysTick_Handler
 174              		.align	2
 175              		.global	main
 176              		.thumb
 177              		.thumb_func
 178              		.type	main, %function
 179              	main:
 180              	.LFB4:
  81:Blinky.c      **** 
  82:Blinky.c      **** /*----------------------------------------------------------------------------
  83:Blinky.c      ****   MAIN function
  84:Blinky.c      ****  *----------------------------------------------------------------------------*/
  85:Blinky.c      **** int main (void) {
 181              		.loc 1 85 0
 182              		@ args = 0, pretend = 0, frame = 0
 183              		@ frame_needed = 0, uses_anonymous_args = 0
 184 0128 2DE9F84F 		push	{r3, r4, r5, r6, r7, r8, r9, sl, fp, lr}
 185              	.LCFI0:
  86:Blinky.c      ****   int i;
  87:Blinky.c      ****   int AD_value;
  88:Blinky.c      ****   int AD_scaled_ex = 0;
  89:Blinky.c      ****   int AD_scaled;
  90:Blinky.c      **** 
  91:Blinky.c      ****   stm32_Init ();                                  // STM32 setup
 186              		.loc 1 91 0
 187 012c FFF7FEFF 		bl	stm32_Init
  92:Blinky.c      ****   adc_Init();                                     // initialise A/D converter
 188              		.loc 1 92 0
 189 0130 FFF7FEFF 		bl	adc_Init
ARM GAS  D:\DOCUME~1\admin\LOCALS~1\Temp\cccXdZBs.s 			page 6


  93:Blinky.c      **** 
  94:Blinky.c      ****   lcd_init  ();
 190              		.loc 1 94 0
 191 0134 FFF7FEFF 		bl	lcd_init
  95:Blinky.c      ****   lcd_clear ();
 192              		.loc 1 95 0
 193 0138 FFF7FEFF 		bl	lcd_clear
  96:Blinky.c      ****   lcd_print (" MCBSTM32 DEMO  ");
 194              		.loc 1 96 0
 195 013c 40F20000 		movw	r0, #:lower16:.LC0
 196 0140 C0F20000 		movt	r0, #:upper16:.LC0
 197 0144 FFF7FEFF 		bl	lcd_print
  97:Blinky.c      ****   set_cursor(0, 1);
 198              		.loc 1 97 0
 199 0148 4FF00000 		mov	r0, #0
 200 014c 4FF00101 		mov	r1, #1
 201 0150 FFF7FEFF 		bl	set_cursor
  98:Blinky.c      ****   lcd_print ("  www.keil.com  ");
 202              		.loc 1 98 0
 203 0154 40F20000 		movw	r0, #:lower16:.LC1
 204 0158 C0F20000 		movt	r0, #:upper16:.LC1
 205 015c FFF7FEFF 		bl	lcd_print
 206 0160 4FF00008 		mov	r8, #0
 207              	.LVL0:
  99:Blinky.c      **** 
 100:Blinky.c      ****   for (i = 0; i < 10000000; i++);                 // Wait for initial display
 101:Blinky.c      **** 
 102:Blinky.c      ****   while (1) {                                     // Loop forever
 103:Blinky.c      ****     AD_value  = ADC_ConvertedValue;               // Read AD value
 208              		.loc 1 103 0
 209 0164 40F20007 		movw	r7, #:lower16:ADC_ConvertedValue
 210 0168 C0F20007 		movt	r7, #:upper16:ADC_ConvertedValue
 104:Blinky.c      ****     AD_scaled = AD_value / 52;                    // AD value scaled to 0 .. 78 (lines on LCD)
 211              		.loc 1 104 0
 212 016c 4EF64F43 		movw	r3, #:lower16:1321528399
 213 0170 C4F6C463 		movt	r3, #:upper16:1321528399
 214 0174 9B46     		mov	fp, r3
 105:Blinky.c      ****     if (AD_scaled != AD_scaled_ex) {              // If new AD value different than old
 106:Blinky.c      ****       AD_scaled_ex = AD_scaled;
 107:Blinky.c      ****       lcd_bargraphXY(0, 1, AD_scaled);            // Display bargraph according to AD
 215              		.loc 1 107 0
 216 0176 C246     		mov	sl, r8
 108:Blinky.c      ****     }
 109:Blinky.c      **** 
 110:Blinky.c      ****                                                   // Print message with AD value to serial port eve
 111:Blinky.c      ****     if (Clock1s) {
 217              		.loc 1 111 0
 218 0178 40F20006 		movw	r6, #:lower16:Clock1s
 219 017c C0F20006 		movt	r6, #:upper16:Clock1s
 112:Blinky.c      ****       Clock1s = 0;
 113:Blinky.c      ****       printf("AD value = 0x%04X\r\n", AD_value);
 220              		.loc 1 113 0
 221 0180 40F20009 		movw	r9, #:lower16:.LC2
 222 0184 C0F20009 		movt	r9, #:upper16:.LC2
 223              	.LVL1:
 224              	.L12:
 225              		.loc 1 103 0
ARM GAS  D:\DOCUME~1\admin\LOCALS~1\Temp\cccXdZBs.s 			page 7


 226 0188 3D88     		ldrh	r5, [r7, #0]
 227              		.loc 1 104 0
 228 018a 8BFB0523 		smull	r2, r3, fp, r5
 229 018e 4FEA2314 		asr	r4, r3, #4
 230              		.loc 1 105 0
 231 0192 4445     		cmp	r4, r8
 232 0194 06D0     		beq	.L9
 233              		.loc 1 107 0
 234 0196 5046     		mov	r0, sl
 235 0198 4FF00101 		mov	r1, #1
 236 019c 2246     		mov	r2, r4
 237 019e FFF7FEFF 		bl	lcd_bargraphXY
 238 01a2 A046     		mov	r8, r4
 239              	.L9:
 240              		.loc 1 111 0
 241 01a4 3378     		ldrb	r3, [r6, #0]	@ zero_extendqisi2
 242 01a6 002B     		cmp	r3, #0
 243 01a8 EED0     		beq	.L12
 244              		.loc 1 112 0
 245 01aa 86F800A0 		strb	sl, [r6, #0]
 246              		.loc 1 113 0
 247 01ae 4846     		mov	r0, r9
 248 01b0 2946     		mov	r1, r5
 249 01b2 FFF7FEFF 		bl	printf
 250 01b6 E7E7     		b	.L12
 251              	.LFE4:
 252              		.size	main, .-main
 253              		.global	str
 254              		.global	essai
 255              		.comm	ADC_ConvertedValue,2,2
 256              		.comm	Clock1s,1,1
 257              		.data
 258              		.align	2
 259              		.set	.LANCHOR1,. + 0
 260              		.type	leds.4226, %object
 261              		.size	leds.4226, 1
 262              	leds.4226:
 263 0000 01       		.byte	1
 264 0001 000000   		.space	3
 265              		.type	str, %object
 266              		.size	str, 5
 267              	str:
 268 0004 546F746F 		.ascii	"Toto\000"
 268      00
 269              		.type	essai, %object
 270              		.size	essai, 1
 271              	essai:
 272 0009 04       		.byte	4
 273 000a 0000     		.section	.rodata.str1.4,"aMS",%progbits,1
 274              		.align	2
 275              	.LC0:
 276 0000 204D4342 		.ascii	" MCBSTM32 DEMO  \000"
 276      53544D33 
 276      32204445 
 276      4D4F2020 
 276      00
 277 0011 000000   		.space	3
ARM GAS  D:\DOCUME~1\admin\LOCALS~1\Temp\cccXdZBs.s 			page 8


 278              	.LC1:
 279 0014 20207777 		.ascii	"  www.keil.com  \000"
 279      772E6B65 
 279      696C2E63 
 279      6F6D2020 
 279      00
 280 0025 000000   		.space	3
 281              	.LC2:
 282 0028 41442076 		.ascii	"AD value = 0x%04X\015\012\000"
 282      616C7565 
 282      203D2030 
 282      78253034 
 282      580D0A00 
 283              		.bss
 284              		.align	2
 285              		.set	.LANCHOR0,. + 0
 286              		.type	ticks.4224, %object
 287              		.size	ticks.4224, 4
 288              	ticks.4224:
 289 0000 00000000 		.space	4
 290              		.type	timetick.4225, %object
 291              		.size	timetick.4225, 4
 292              	timetick.4225:
 293 0004 00000000 		.space	4
 294              		.section	.debug_frame,"",%progbits
 295              	.Lframe0:
 296 0000 0C000000 		.4byte	.LECIE0-.LSCIE0
 297              	.LSCIE0:
 298 0004 FFFFFFFF 		.4byte	0xffffffff
 299 0008 01       		.byte	0x1
 300 0009 00       		.ascii	"\000"
 301 000a 01       		.uleb128 0x1
 302 000b 7C       		.sleb128 -4
 303 000c 0E       		.byte	0xe
 304 000d 0C       		.byte	0xc
 305 000e 0D       		.uleb128 0xd
 306 000f 00       		.uleb128 0x0
 307              		.align	2
 308              	.LECIE0:
 309              	.LSFDE0:
 310 0010 0C000000 		.4byte	.LEFDE0-.LASFDE0
 311              	.LASFDE0:
 312 0014 00000000 		.4byte	.Lframe0
 313 0018 00000000 		.4byte	.LFB2
 314 001c 92000000 		.4byte	.LFE2-.LFB2
 315              		.align	2
 316              	.LEFDE0:
 317              	.LSFDE2:
 318 0020 0C000000 		.4byte	.LEFDE2-.LASFDE2
 319              	.LASFDE2:
 320 0024 00000000 		.4byte	.Lframe0
 321 0028 94000000 		.4byte	.LFB3
 322 002c 94000000 		.4byte	.LFE3-.LFB3
 323              		.align	2
 324              	.LEFDE2:
 325              	.LSFDE4:
 326 0030 24000000 		.4byte	.LEFDE4-.LASFDE4
ARM GAS  D:\DOCUME~1\admin\LOCALS~1\Temp\cccXdZBs.s 			page 9


 327              	.LASFDE4:
 328 0034 00000000 		.4byte	.Lframe0
 329 0038 28010000 		.4byte	.LFB4
 330 003c 90000000 		.4byte	.LFE4-.LFB4
 331 0040 44       		.byte	0x4
 332              		.4byte	.LCFI0-.LFB4
 333 0041 0E       		.byte	0xe
 334 0042 28       		.uleb128 0x28
 335 0043 8E       		.byte	0x8e
 336 0044 01       		.uleb128 0x1
 337 0045 8B       		.byte	0x8b
 338 0046 02       		.uleb128 0x2
 339 0047 8A       		.byte	0x8a
 340 0048 03       		.uleb128 0x3
 341 0049 89       		.byte	0x89
 342 004a 04       		.uleb128 0x4
 343 004b 88       		.byte	0x88
 344 004c 05       		.uleb128 0x5
 345 004d 87       		.byte	0x87
 346 004e 06       		.uleb128 0x6
 347 004f 86       		.byte	0x86
 348 0050 07       		.uleb128 0x7
 349 0051 85       		.byte	0x85
 350 0052 08       		.uleb128 0x8
 351 0053 84       		.byte	0x84
 352 0054 09       		.uleb128 0x9
 353 0055 83       		.byte	0x83
 354 0056 0A       		.uleb128 0xa
 355 0057 00       		.align	2
 356              	.LEFDE4:
 357              		.text
 358              	.Letext0: