ARM GAS  D:\DOCUME~1\admin\LOCALS~1\Temp\ccvVqtDA.s 			page 1


   1              		.syntax unified
   2              		.cpu cortex-m3
   3              		.fpu softvfp
   4              		.eabi_attribute 20, 1
   5              		.eabi_attribute 21, 1
   6              		.eabi_attribute 23, 3
   7              		.eabi_attribute 24, 1
   8              		.eabi_attribute 25, 1
   9              		.eabi_attribute 26, 1
  10              		.eabi_attribute 30, 1
  11              		.eabi_attribute 18, 4
  12              		.thumb
  13              		.file	"Serial.c"
  14              		.section	.debug_abbrev,"",%progbits
  15              	.Ldebug_abbrev0:
  16              		.section	.debug_info,"",%progbits
  17              	.Ldebug_info0:
  18              		.section	.debug_line,"",%progbits
  19              	.Ldebug_line0:
  20 0000 91000000 		.text
  20      02007500 
  20      00000201 
  20      FB0E0D00 
  20      01010101 
  21              	.Ltext0:
  22              		.align	2
  23              		.global	ser_putchar
  24              		.thumb
  25              		.thumb_func
  26              		.type	ser_putchar, %function
  27              	ser_putchar:
  28              	.LFB2:
  29              		.file 1 "Serial.c"
   1:Serial.c      **** /*----------------------------------------------------------------------------
   2:Serial.c      ****  * Name:    Serial.c
   3:Serial.c      ****  * Purpose: Low level serial routines for STM32
   4:Serial.c      ****  * Version: V1.00
   5:Serial.c      ****  *----------------------------------------------------------------------------
   6:Serial.c      ****  * This file is part of the uVision/ARM development tools.
   7:Serial.c      ****  * This software may only be used under the terms of a valid, current,
   8:Serial.c      ****  * end user licence from KEIL for a compatible version of KEIL software
   9:Serial.c      ****  * development tools. Nothing else gives you the right to use this software.
  10:Serial.c      ****  *
  11:Serial.c      ****  * Copyright (c) 2005-2007 Keil Software. All rights reserved.
  12:Serial.c      ****  *----------------------------------------------------------------------------*/
  13:Serial.c      **** 
  14:Serial.c      **** #include <stm32f10x_lib.h>                        // STM32F10x Library Definitions
  15:Serial.c      **** 
  16:Serial.c      **** #define USARTx   USART1                           // USART1 is used
  17:Serial.c      **** 
  18:Serial.c      **** /*----------------------------------------------------------------------------
  19:Serial.c      ****   Write character to Serial Port
  20:Serial.c      ****  *----------------------------------------------------------------------------*/
  21:Serial.c      **** int ser_putchar (int c) {
  30              		.loc 1 21 0
  31              		@ args = 0, pretend = 0, frame = 0
  32              		@ frame_needed = 0, uses_anonymous_args = 0
ARM GAS  D:\DOCUME~1\admin\LOCALS~1\Temp\ccvVqtDA.s 			page 2


  33              		@ link register save eliminated.
  34              	.LVL0:
  22:Serial.c      **** 
  23:Serial.c      ****   while (!(USARTx->SR & USART_FLAG_TXE));
  35              		.loc 1 23 0
  36 0000 43F60003 		movw	r3, #:lower16:1073821696
  37 0004 1A46     		mov	r2, r3
  38 0006 C4F20102 		movt	r2, #:upper16:1073821696
  39              	.L2:
  40 000a 1388     		ldrh	r3, [r2, #0]
  41 000c 13F0800F 		tst	r3, #128
  42 0010 FBD0     		beq	.L2
  24:Serial.c      ****   USARTx->DR = (c & 0x1FF);
  43              		.loc 1 24 0
  44 0012 4FEAC052 		lsl	r2, r0, #23
  45 0016 4FEAD252 		lsr	r2, r2, #23
  46 001a 43F60003 		movw	r3, #:lower16:1073821696
  47 001e C4F20103 		movt	r3, #:upper16:1073821696
  48 0022 9A80     		strh	r2, [r3, #4]	@ movhi
  49              	.LVL1:
  25:Serial.c      **** 
  26:Serial.c      ****   return (c);
  27:Serial.c      **** }
  50              		.loc 1 27 0
  51 0024 7047     		bx	lr
  52              	.LFE2:
  53              		.size	ser_putchar, .-ser_putchar
  54 0026 00BF     		.align	2
  55              		.global	ser_getchar
  56              		.thumb
  57              		.thumb_func
  58              		.type	ser_getchar, %function
  59              	ser_getchar:
  60              	.LFB3:
  28:Serial.c      **** 
  29:Serial.c      **** 
  30:Serial.c      **** /*----------------------------------------------------------------------------
  31:Serial.c      ****   Read character from Serial Port   (blocking read)
  32:Serial.c      ****  *----------------------------------------------------------------------------*/
  33:Serial.c      **** int ser_getchar (void) {
  61              		.loc 1 33 0
  62              		@ args = 0, pretend = 0, frame = 0
  63              		@ frame_needed = 0, uses_anonymous_args = 0
  64              		@ link register save eliminated.
  34:Serial.c      **** 
  35:Serial.c      ****   while (!(USARTx->SR & USART_FLAG_RXNE));
  65              		.loc 1 35 0
  66 0028 43F60003 		movw	r3, #:lower16:1073821696
  67 002c 1A46     		mov	r2, r3
  68 002e C4F20102 		movt	r2, #:upper16:1073821696
  69              	.L6:
  70 0032 1388     		ldrh	r3, [r2, #0]
  71 0034 13F0200F 		tst	r3, #32
  72 0038 FBD0     		beq	.L6
  36:Serial.c      **** 
  37:Serial.c      ****   return ((int)(USARTx->DR & 0x1FF));
  73              		.loc 1 37 0
ARM GAS  D:\DOCUME~1\admin\LOCALS~1\Temp\ccvVqtDA.s 			page 3


  74 003a 43F60003 		movw	r3, #:lower16:1073821696
  75 003e C4F20103 		movt	r3, #:upper16:1073821696
  76 0042 9888     		ldrh	r0, [r3, #4]
  38:Serial.c      **** }
  77              		.loc 1 38 0
  78 0044 4FEAC050 		lsl	r0, r0, #23
  79 0048 4FEAD050 		lsr	r0, r0, #23
  80 004c 7047     		bx	lr
  81              	.LFE3:
  82              		.size	ser_getchar, .-ser_getchar
  83              		.section	.debug_frame,"",%progbits
  84              	.Lframe0:
  85 0000 0C000000 		.4byte	.LECIE0-.LSCIE0
  86              	.LSCIE0:
  87 0004 FFFFFFFF 		.4byte	0xffffffff
  88 0008 01       		.byte	0x1
  89 0009 00       		.ascii	"\000"
  90 000a 01       		.uleb128 0x1
  91 000b 7C       		.sleb128 -4
  92 000c 0E       		.byte	0xe
  93 000d 0C       		.byte	0xc
  94 000e 0D       		.uleb128 0xd
  95 000f 00       		.uleb128 0x0
  96              		.align	2
  97              	.LECIE0:
  98              	.LSFDE0:
  99 0010 0C000000 		.4byte	.LEFDE0-.LASFDE0
 100              	.LASFDE0:
 101 0014 00000000 		.4byte	.Lframe0
 102 0018 00000000 		.4byte	.LFB2
 103 001c 26000000 		.4byte	.LFE2-.LFB2
 104              		.align	2
 105              	.LEFDE0:
 106              	.LSFDE2:
 107 0020 0C000000 		.4byte	.LEFDE2-.LASFDE2
 108              	.LASFDE2:
 109 0024 00000000 		.4byte	.Lframe0
 110 0028 28000000 		.4byte	.LFB3
 111 002c 26000000 		.4byte	.LFE3-.LFB3
 112              		.align	2
 113              	.LEFDE2:
 114              		.text
 115              	.Letext0:
 116 004e 00BF     		.section	.debug_loc,"",%progbits
 117              	.Ldebug_loc0:
 118              	.LLST1:
 119 0000 00000000 		.4byte	.LVL0-.Ltext0
 120 0004 24000000 		.4byte	.LVL1-.Ltext0
 121 0008 0100     		.2byte	0x1
 122 000a 50       		.byte	0x50
 123 000b 00000000 		.4byte	0x0
 124 000f 00000000 		.4byte	0x0
 125              		.file 2 "E:/programs/keil_arm_eval/ARM/INC/ST/STM32F10x/stm32f10x_map.h"
 126              		.file 3 "E:/programs/keil_arm_eval/ARM/INC/ST/STM32F10x/stm32f10x_type.h"
 127              		.section	.debug_info
 128 0000 80010000 		.4byte	0x180
 129 0004 0200     		.2byte	0x2
ARM GAS  D:\DOCUME~1\admin\LOCALS~1\Temp\ccvVqtDA.s 			page 4


 130 0006 00000000 		.4byte	.Ldebug_abbrev0
 131 000a 04       		.byte	0x4
 132 000b 01       		.uleb128 0x1
 133 000c 00010000 		.4byte	.LASF14
 134 0010 01       		.byte	0x1
 135 0011 E3000000 		.4byte	.LASF15
 136 0015 5A000000 		.4byte	.LASF16
 137 0019 00000000 		.4byte	.Ltext0
 138 001d 4E000000 		.4byte	.Letext0
 139 0021 00000000 		.4byte	.Ldebug_line0
 140 0025 02       		.uleb128 0x2
 141 0026 04       		.byte	0x4
 142 0027 05       		.byte	0x5
 143 0028 A8000000 		.4byte	.LASF0
 144 002c 02       		.uleb128 0x2
 145 002d 02       		.byte	0x2
 146 002e 05       		.byte	0x5
 147 002f 31000000 		.4byte	.LASF1
 148 0033 02       		.uleb128 0x2
 149 0034 01       		.byte	0x1
 150 0035 06       		.byte	0x6
 151 0036 0C010000 		.4byte	.LASF2
 152 003a 02       		.uleb128 0x2
 153 003b 04       		.byte	0x4
 154 003c 07       		.byte	0x7
 155 003d 1F000000 		.4byte	.LASF3
 156 0041 03       		.uleb128 0x3
 157 0042 75313600 		.ascii	"u16\000"
 158 0046 03       		.byte	0x3
 159 0047 28       		.byte	0x28
 160 0048 4C000000 		.4byte	0x4c
 161 004c 02       		.uleb128 0x2
 162 004d 02       		.byte	0x2
 163 004e 07       		.byte	0x7
 164 004f 00000000 		.4byte	.LASF4
 165 0053 02       		.uleb128 0x2
 166 0054 01       		.byte	0x1
 167 0055 08       		.byte	0x8
 168 0056 4C000000 		.4byte	.LASF5
 169 005a 04       		.uleb128 0x4
 170 005b 4C000000 		.4byte	0x4c
 171 005f 05       		.uleb128 0x5
 172 0060 04       		.byte	0x4
 173 0061 07       		.byte	0x7
 174 0062 06       		.uleb128 0x6
 175 0063 1C       		.byte	0x1c
 176 0064 02       		.byte	0x2
 177 0065 3902     		.2byte	0x239
 178 0067 3C010000 		.4byte	0x13c
 179 006b 07       		.uleb128 0x7
 180 006c 535200   		.ascii	"SR\000"
 181 006f 02       		.byte	0x2
 182 0070 3A02     		.2byte	0x23a
 183 0072 5A000000 		.4byte	0x5a
 184 0076 02       		.byte	0x2
 185 0077 23       		.byte	0x23
 186 0078 00       		.uleb128 0x0
ARM GAS  D:\DOCUME~1\admin\LOCALS~1\Temp\ccvVqtDA.s 			page 5


 187 0079 08       		.uleb128 0x8
 188 007a BB000000 		.4byte	.LASF6
 189 007e 02       		.byte	0x2
 190 007f 3B02     		.2byte	0x23b
 191 0081 41000000 		.4byte	0x41
 192 0085 02       		.byte	0x2
 193 0086 23       		.byte	0x23
 194 0087 02       		.uleb128 0x2
 195 0088 07       		.uleb128 0x7
 196 0089 445200   		.ascii	"DR\000"
 197 008c 02       		.byte	0x2
 198 008d 3C02     		.2byte	0x23c
 199 008f 5A000000 		.4byte	0x5a
 200 0093 02       		.byte	0x2
 201 0094 23       		.byte	0x23
 202 0095 04       		.uleb128 0x4
 203 0096 08       		.uleb128 0x8
 204 0097 C5000000 		.4byte	.LASF7
 205 009b 02       		.byte	0x2
 206 009c 3D02     		.2byte	0x23d
 207 009e 41000000 		.4byte	0x41
 208 00a2 02       		.byte	0x2
 209 00a3 23       		.byte	0x23
 210 00a4 06       		.uleb128 0x6
 211 00a5 07       		.uleb128 0x7
 212 00a6 42525200 		.ascii	"BRR\000"
 213 00aa 02       		.byte	0x2
 214 00ab 3E02     		.2byte	0x23e
 215 00ad 5A000000 		.4byte	0x5a
 216 00b1 02       		.byte	0x2
 217 00b2 23       		.byte	0x23
 218 00b3 08       		.uleb128 0x8
 219 00b4 08       		.uleb128 0x8
 220 00b5 CF000000 		.4byte	.LASF8
 221 00b9 02       		.byte	0x2
 222 00ba 3F02     		.2byte	0x23f
 223 00bc 41000000 		.4byte	0x41
 224 00c0 02       		.byte	0x2
 225 00c1 23       		.byte	0x23
 226 00c2 0A       		.uleb128 0xa
 227 00c3 07       		.uleb128 0x7
 228 00c4 43523100 		.ascii	"CR1\000"
 229 00c8 02       		.byte	0x2
 230 00c9 4002     		.2byte	0x240
 231 00cb 5A000000 		.4byte	0x5a
 232 00cf 02       		.byte	0x2
 233 00d0 23       		.byte	0x23
 234 00d1 0C       		.uleb128 0xc
 235 00d2 08       		.uleb128 0x8
 236 00d3 D9000000 		.4byte	.LASF9
 237 00d7 02       		.byte	0x2
 238 00d8 4102     		.2byte	0x241
 239 00da 41000000 		.4byte	0x41
 240 00de 02       		.byte	0x2
 241 00df 23       		.byte	0x23
 242 00e0 0E       		.uleb128 0xe
 243 00e1 07       		.uleb128 0x7
ARM GAS  D:\DOCUME~1\admin\LOCALS~1\Temp\ccvVqtDA.s 			page 6


 244 00e2 43523200 		.ascii	"CR2\000"
 245 00e6 02       		.byte	0x2
 246 00e7 4202     		.2byte	0x242
 247 00e9 5A000000 		.4byte	0x5a
 248 00ed 02       		.byte	0x2
 249 00ee 23       		.byte	0x23
 250 00ef 10       		.uleb128 0x10
 251 00f0 08       		.uleb128 0x8
 252 00f1 B1000000 		.4byte	.LASF10
 253 00f5 02       		.byte	0x2
 254 00f6 4302     		.2byte	0x243
 255 00f8 41000000 		.4byte	0x41
 256 00fc 02       		.byte	0x2
 257 00fd 23       		.byte	0x23
 258 00fe 12       		.uleb128 0x12
 259 00ff 07       		.uleb128 0x7
 260 0100 43523300 		.ascii	"CR3\000"
 261 0104 02       		.byte	0x2
 262 0105 4402     		.2byte	0x244
 263 0107 5A000000 		.4byte	0x5a
 264 010b 02       		.byte	0x2
 265 010c 23       		.byte	0x23
 266 010d 14       		.uleb128 0x14
 267 010e 08       		.uleb128 0x8
 268 010f EC000000 		.4byte	.LASF11
 269 0113 02       		.byte	0x2
 270 0114 4502     		.2byte	0x245
 271 0116 41000000 		.4byte	0x41
 272 011a 02       		.byte	0x2
 273 011b 23       		.byte	0x23
 274 011c 16       		.uleb128 0x16
 275 011d 08       		.uleb128 0x8
 276 011e 3B000000 		.4byte	.LASF12
 277 0122 02       		.byte	0x2
 278 0123 4602     		.2byte	0x246
 279 0125 5A000000 		.4byte	0x5a
 280 0129 02       		.byte	0x2
 281 012a 23       		.byte	0x23
 282 012b 18       		.uleb128 0x18
 283 012c 08       		.uleb128 0x8
 284 012d F6000000 		.4byte	.LASF13
 285 0131 02       		.byte	0x2
 286 0132 4702     		.2byte	0x247
 287 0134 41000000 		.4byte	0x41
 288 0138 02       		.byte	0x2
 289 0139 23       		.byte	0x23
 290 013a 1A       		.uleb128 0x1a
 291 013b 00       		.byte	0x0
 292 013c 09       		.uleb128 0x9
 293 013d 01       		.byte	0x1
 294 013e 40000000 		.4byte	.LASF17
 295 0142 01       		.byte	0x1
 296 0143 15       		.byte	0x15
 297 0144 01       		.byte	0x1
 298 0145 65010000 		.4byte	0x165
 299 0149 00000000 		.4byte	.LFB2
 300 014d 26000000 		.4byte	.LFE2
ARM GAS  D:\DOCUME~1\admin\LOCALS~1\Temp\ccvVqtDA.s 			page 7


 301 0151 01       		.byte	0x1
 302 0152 5D       		.byte	0x5d
 303 0153 65010000 		.4byte	0x165
 304 0157 0A       		.uleb128 0xa
 305 0158 6300     		.ascii	"c\000"
 306 015a 01       		.byte	0x1
 307 015b 15       		.byte	0x15
 308 015c 65010000 		.4byte	0x165
 309 0160 00000000 		.4byte	.LLST1
 310 0164 00       		.byte	0x0
 311 0165 0B       		.uleb128 0xb
 312 0166 04       		.byte	0x4
 313 0167 05       		.byte	0x5
 314 0168 696E7400 		.ascii	"int\000"
 315 016c 0C       		.uleb128 0xc
 316 016d 01       		.byte	0x1
 317 016e 13000000 		.4byte	.LASF18
 318 0172 01       		.byte	0x1
 319 0173 21       		.byte	0x21
 320 0174 01       		.byte	0x1
 321 0175 65010000 		.4byte	0x165
 322 0179 28000000 		.4byte	.LFB3
 323 017d 4E000000 		.4byte	.LFE3
 324 0181 01       		.byte	0x1
 325 0182 5D       		.byte	0x5d
 326 0183 00       		.byte	0x0
 327              		.section	.debug_abbrev
 328 0000 01       		.uleb128 0x1
 329 0001 11       		.uleb128 0x11
 330 0002 01       		.byte	0x1
 331 0003 25       		.uleb128 0x25
 332 0004 0E       		.uleb128 0xe
 333 0005 13       		.uleb128 0x13
 334 0006 0B       		.uleb128 0xb
 335 0007 03       		.uleb128 0x3
 336 0008 0E       		.uleb128 0xe
 337 0009 1B       		.uleb128 0x1b
 338 000a 0E       		.uleb128 0xe
 339 000b 11       		.uleb128 0x11
 340 000c 01       		.uleb128 0x1
 341 000d 12       		.uleb128 0x12
 342 000e 01       		.uleb128 0x1
 343 000f 10       		.uleb128 0x10
 344 0010 06       		.uleb128 0x6
 345 0011 00       		.byte	0x0
 346 0012 00       		.byte	0x0
 347 0013 02       		.uleb128 0x2
 348 0014 24       		.uleb128 0x24
 349 0015 00       		.byte	0x0
 350 0016 0B       		.uleb128 0xb
 351 0017 0B       		.uleb128 0xb
 352 0018 3E       		.uleb128 0x3e
 353 0019 0B       		.uleb128 0xb
 354 001a 03       		.uleb128 0x3
 355 001b 0E       		.uleb128 0xe
 356 001c 00       		.byte	0x0
 357 001d 00       		.byte	0x0
ARM GAS  D:\DOCUME~1\admin\LOCALS~1\Temp\ccvVqtDA.s 			page 8


 358 001e 03       		.uleb128 0x3
 359 001f 16       		.uleb128 0x16
 360 0020 00       		.byte	0x0
 361 0021 03       		.uleb128 0x3
 362 0022 08       		.uleb128 0x8
 363 0023 3A       		.uleb128 0x3a
 364 0024 0B       		.uleb128 0xb
 365 0025 3B       		.uleb128 0x3b
 366 0026 0B       		.uleb128 0xb
 367 0027 49       		.uleb128 0x49
 368 0028 13       		.uleb128 0x13
 369 0029 00       		.byte	0x0
 370 002a 00       		.byte	0x0
 371 002b 04       		.uleb128 0x4
 372 002c 35       		.uleb128 0x35
 373 002d 00       		.byte	0x0
 374 002e 49       		.uleb128 0x49
 375 002f 13       		.uleb128 0x13
 376 0030 00       		.byte	0x0
 377 0031 00       		.byte	0x0
 378 0032 05       		.uleb128 0x5
 379 0033 24       		.uleb128 0x24
 380 0034 00       		.byte	0x0
 381 0035 0B       		.uleb128 0xb
 382 0036 0B       		.uleb128 0xb
 383 0037 3E       		.uleb128 0x3e
 384 0038 0B       		.uleb128 0xb
 385 0039 00       		.byte	0x0
 386 003a 00       		.byte	0x0
 387 003b 06       		.uleb128 0x6
 388 003c 13       		.uleb128 0x13
 389 003d 01       		.byte	0x1
 390 003e 0B       		.uleb128 0xb
 391 003f 0B       		.uleb128 0xb
 392 0040 3A       		.uleb128 0x3a
 393 0041 0B       		.uleb128 0xb
 394 0042 3B       		.uleb128 0x3b
 395 0043 05       		.uleb128 0x5
 396 0044 01       		.uleb128 0x1
 397 0045 13       		.uleb128 0x13
 398 0046 00       		.byte	0x0
 399 0047 00       		.byte	0x0
 400 0048 07       		.uleb128 0x7
 401 0049 0D       		.uleb128 0xd
 402 004a 00       		.byte	0x0
 403 004b 03       		.uleb128 0x3
 404 004c 08       		.uleb128 0x8
 405 004d 3A       		.uleb128 0x3a
 406 004e 0B       		.uleb128 0xb
 407 004f 3B       		.uleb128 0x3b
 408 0050 05       		.uleb128 0x5
 409 0051 49       		.uleb128 0x49
 410 0052 13       		.uleb128 0x13
 411 0053 38       		.uleb128 0x38
 412 0054 0A       		.uleb128 0xa
 413 0055 00       		.byte	0x0
 414 0056 00       		.byte	0x0
ARM GAS  D:\DOCUME~1\admin\LOCALS~1\Temp\ccvVqtDA.s 			page 9


 415 0057 08       		.uleb128 0x8
 416 0058 0D       		.uleb128 0xd
 417 0059 00       		.byte	0x0
 418 005a 03       		.uleb128 0x3
 419 005b 0E       		.uleb128 0xe
 420 005c 3A       		.uleb128 0x3a
 421 005d 0B       		.uleb128 0xb
 422 005e 3B       		.uleb128 0x3b
 423 005f 05       		.uleb128 0x5
 424 0060 49       		.uleb128 0x49
 425 0061 13       		.uleb128 0x13
 426 0062 38       		.uleb128 0x38
 427 0063 0A       		.uleb128 0xa
 428 0064 00       		.byte	0x0
 429 0065 00       		.byte	0x0
 430 0066 09       		.uleb128 0x9
 431 0067 2E       		.uleb128 0x2e
 432 0068 01       		.byte	0x1
 433 0069 3F       		.uleb128 0x3f
 434 006a 0C       		.uleb128 0xc
 435 006b 03       		.uleb128 0x3
 436 006c 0E       		.uleb128 0xe
 437 006d 3A       		.uleb128 0x3a
 438 006e 0B       		.uleb128 0xb
 439 006f 3B       		.uleb128 0x3b
 440 0070 0B       		.uleb128 0xb
 441 0071 27       		.uleb128 0x27
 442 0072 0C       		.uleb128 0xc
 443 0073 49       		.uleb128 0x49
 444 0074 13       		.uleb128 0x13
 445 0075 11       		.uleb128 0x11
 446 0076 01       		.uleb128 0x1
 447 0077 12       		.uleb128 0x12
 448 0078 01       		.uleb128 0x1
 449 0079 40       		.uleb128 0x40
 450 007a 0A       		.uleb128 0xa
 451 007b 01       		.uleb128 0x1
 452 007c 13       		.uleb128 0x13
 453 007d 00       		.byte	0x0
 454 007e 00       		.byte	0x0
 455 007f 0A       		.uleb128 0xa
 456 0080 05       		.uleb128 0x5
 457 0081 00       		.byte	0x0
 458 0082 03       		.uleb128 0x3
 459 0083 08       		.uleb128 0x8
 460 0084 3A       		.uleb128 0x3a
 461 0085 0B       		.uleb128 0xb
 462 0086 3B       		.uleb128 0x3b
 463 0087 0B       		.uleb128 0xb
 464 0088 49       		.uleb128 0x49
 465 0089 13       		.uleb128 0x13
 466 008a 02       		.uleb128 0x2
 467 008b 06       		.uleb128 0x6
 468 008c 00       		.byte	0x0
 469 008d 00       		.byte	0x0
 470 008e 0B       		.uleb128 0xb
 471 008f 24       		.uleb128 0x24
ARM GAS  D:\DOCUME~1\admin\LOCALS~1\Temp\ccvVqtDA.s 			page 10


 472 0090 00       		.byte	0x0
 473 0091 0B       		.uleb128 0xb
 474 0092 0B       		.uleb128 0xb
 475 0093 3E       		.uleb128 0x3e
 476 0094 0B       		.uleb128 0xb
 477 0095 03       		.uleb128 0x3
 478 0096 08       		.uleb128 0x8
 479 0097 00       		.byte	0x0
 480 0098 00       		.byte	0x0
 481 0099 0C       		.uleb128 0xc
 482 009a 2E       		.uleb128 0x2e
 483 009b 00       		.byte	0x0
 484 009c 3F       		.uleb128 0x3f
 485 009d 0C       		.uleb128 0xc
 486 009e 03       		.uleb128 0x3
 487 009f 0E       		.uleb128 0xe
 488 00a0 3A       		.uleb128 0x3a
 489 00a1 0B       		.uleb128 0xb
 490 00a2 3B       		.uleb128 0x3b
 491 00a3 0B       		.uleb128 0xb
 492 00a4 27       		.uleb128 0x27
 493 00a5 0C       		.uleb128 0xc
 494 00a6 49       		.uleb128 0x49
 495 00a7 13       		.uleb128 0x13
 496 00a8 11       		.uleb128 0x11
 497 00a9 01       		.uleb128 0x1
 498 00aa 12       		.uleb128 0x12
 499 00ab 01       		.uleb128 0x1
 500 00ac 40       		.uleb128 0x40
 501 00ad 0A       		.uleb128 0xa
 502 00ae 00       		.byte	0x0
 503 00af 00       		.byte	0x0
 504 00b0 00       		.byte	0x0
 505              		.section	.debug_pubnames,"",%progbits
 506 0000 2E000000 		.4byte	0x2e
 507 0004 0200     		.2byte	0x2
 508 0006 00000000 		.4byte	.Ldebug_info0
 509 000a 84010000 		.4byte	0x184
 510 000e 3C010000 		.4byte	0x13c
 511 0012 7365725F 		.ascii	"ser_putchar\000"
 511      70757463 
 511      68617200 
 512 001e 6C010000 		.4byte	0x16c
 513 0022 7365725F 		.ascii	"ser_getchar\000"
 513      67657463 
 513      68617200 
 514 002e 00000000 		.4byte	0x0
 515              		.section	.debug_aranges,"",%progbits
 516 0000 1C000000 		.4byte	0x1c
 517 0004 0200     		.2byte	0x2
 518 0006 00000000 		.4byte	.Ldebug_info0
 519 000a 04       		.byte	0x4
 520 000b 00       		.byte	0x0
 521 000c 0000     		.2byte	0x0
 522 000e 0000     		.2byte	0x0
 523 0010 00000000 		.4byte	.Ltext0
 524 0014 4E000000 		.4byte	.Letext0-.Ltext0
ARM GAS  D:\DOCUME~1\admin\LOCALS~1\Temp\ccvVqtDA.s 			page 11


 525 0018 00000000 		.4byte	0x0
 526 001c 00000000 		.4byte	0x0
 527              		.section	.debug_str,"MS",%progbits,1
 528              	.LASF4:
 529 0000 73686F72 		.ascii	"short unsigned int\000"
 529      7420756E 
 529      7369676E 
 529      65642069 
 529      6E7400
 530              	.LASF18:
 531 0013 7365725F 		.ascii	"ser_getchar\000"
 531      67657463 
 531      68617200 
 532              	.LASF3:
 533 001f 6C6F6E67 		.ascii	"long unsigned int\000"
 533      20756E73 
 533      69676E65 
 533      6420696E 
 533      7400
 534              	.LASF1:
 535 0031 73686F72 		.ascii	"short int\000"
 535      7420696E 
 535      7400
 536              	.LASF12:
 537 003b 47545052 		.ascii	"GTPR\000"
 537      00
 538              	.LASF17:
 539 0040 7365725F 		.ascii	"ser_putchar\000"
 539      70757463 
 539      68617200 
 540              	.LASF5:
 541 004c 756E7369 		.ascii	"unsigned char\000"
 541      676E6564 
 541      20636861 
 541      7200
 542              	.LASF16:
 543 005a 4A3A5C61 		.ascii	"J:\\acco\\zipzap\\cortex_dev\\projets\\ap note 199\\"
 543      63636F5C 
 543      7A69707A 
 543      61705C63 
 543      6F727465 
 544 0088 41504E31 		.ascii	"APN199_Examples\\MCBSTM32_Blinky\000"
 544      39395F45 
 544      78616D70 
 544      6C65735C 
 544      4D434253 
 545              	.LASF0:
 546 00a8 6C6F6E67 		.ascii	"long int\000"
 546      20696E74 
 546      00
 547              	.LASF10:
 548 00b1 52455345 		.ascii	"RESERVED4\000"
 548      52564544 
 548      3400
 549              	.LASF6:
 550 00bb 52455345 		.ascii	"RESERVED0\000"
 550      52564544 
ARM GAS  D:\DOCUME~1\admin\LOCALS~1\Temp\ccvVqtDA.s 			page 12


 550      3000
 551              	.LASF7:
 552 00c5 52455345 		.ascii	"RESERVED1\000"
 552      52564544 
 552      3100
 553              	.LASF8:
 554 00cf 52455345 		.ascii	"RESERVED2\000"
 554      52564544 
 554      3200
 555              	.LASF9:
 556 00d9 52455345 		.ascii	"RESERVED3\000"
 556      52564544 
 556      3300
 557              	.LASF15:
 558 00e3 53657269 		.ascii	"Serial.c\000"
 558      616C2E63 
 558      00
 559              	.LASF11:
 560 00ec 52455345 		.ascii	"RESERVED5\000"
 560      52564544 
 560      3500
 561              	.LASF13:
 562 00f6 52455345 		.ascii	"RESERVED6\000"
 562      52564544 
 562      3600
 563              	.LASF14:
 564 0100 474E5520 		.ascii	"GNU C 4.3.3\000"
 564      4320342E 
 564      332E3300 
 565              	.LASF2:
 566 010c 7369676E 		.ascii	"signed char\000"
 566      65642063 
 566      68617200 
 567              		.ident	"GCC: (Sourcery G++ Lite 2009q1-161) 4.3.3"
ARM GAS  D:\DOCUME~1\admin\LOCALS~1\Temp\ccvVqtDA.s 			page 13


DEFINED SYMBOLS
                            *ABS*:00000000 Serial.c
D:\DOCUME~1\admin\LOCALS~1\Temp\ccvVqtDA.s:22     .text:00000000 $t
D:\DOCUME~1\admin\LOCALS~1\Temp\ccvVqtDA.s:27     .text:00000000 ser_putchar
D:\DOCUME~1\admin\LOCALS~1\Temp\ccvVqtDA.s:59     .text:00000028 ser_getchar
D:\DOCUME~1\admin\LOCALS~1\Temp\ccvVqtDA.s:85     .debug_frame:00000000 $d
D:\DOCUME~1\admin\LOCALS~1\Temp\ccvVqtDA.s:119    .debug_loc:00000000 $d
D:\DOCUME~1\admin\LOCALS~1\Temp\ccvVqtDA.s:116    .text:0000004e $t

NO UNDEFINED SYMBOLS
