ARM GAS  D:\DOCUME~1\admin\LOCALS~1\Temp\cckKv2K2.s 			page 1


   1              		.syntax unified
   2              		.cpu cortex-m3
   3              		.fpu softvfp
   4              		.eabi_attribute 20, 1
   5              		.eabi_attribute 21, 1
   6              		.eabi_attribute 23, 3
   7              		.eabi_attribute 24, 1
   8              		.eabi_attribute 25, 1
   9              		.eabi_attribute 26, 1
  10              		.eabi_attribute 30, 1
  11              		.eabi_attribute 18, 4
  12              		.thumb
  13              		.file	"Syscalls.c"
  20 0000 F3000000 		.text
  20      0200BB00 
  20      00000201 
  20      FB0E0D00 
  20      01010101 
  21              	.Ltext0:
  22              		.align	2
  23              		.global	_lseek
  24              		.thumb
  25              		.thumb_func
  26              		.type	_lseek, %function
  27              	_lseek:
  28              	.LFB4:
  29              		.file 1 "Syscalls.c"
   1:Syscalls.c    **** /* System Calls Remapping */
   2:Syscalls.c    **** 
   3:Syscalls.c    **** #include <sys/stat.h>
   4:Syscalls.c    **** #include <sys/time.h>
   5:Syscalls.c    **** #include <sys/times.h>
   6:Syscalls.c    **** #include <string.h>
   7:Syscalls.c    **** #include <errno.h>
   8:Syscalls.c    **** 
   9:Syscalls.c    **** #define putchar ser_putchar
  10:Syscalls.c    **** #define getchar ser_getchar
  11:Syscalls.c    **** 
  12:Syscalls.c    **** extern int putchar (int ch);
  13:Syscalls.c    **** extern int getchar (void);
  14:Syscalls.c    **** 
  15:Syscalls.c    **** int printf (char *text, ...)
  16:Syscalls.c    **** {
  17:Syscalls.c    **** 	putchar ((int) *text);
  18:Syscalls.c    **** return 0;
  19:Syscalls.c    **** }
  20:Syscalls.c    **** 
  21:Syscalls.c    **** int _read (int fd, char * ptr, int len) {
  22:Syscalls.c    ****   char c;
  23:Syscalls.c    ****   int  i;
  24:Syscalls.c    **** 
ARM GAS  D:\DOCUME~1\admin\LOCALS~1\Temp\cckKv2K2.s 			page 2


  25:Syscalls.c    ****   for (i = 0; i < len; i++) {
  26:Syscalls.c    ****     c = getchar();
  27:Syscalls.c    ****     if (c == 0x0D) break;
  28:Syscalls.c    ****     *ptr++ = c;
  29:Syscalls.c    ****     putchar(c);
  30:Syscalls.c    ****   }
  31:Syscalls.c    ****   return (len - i);
  32:Syscalls.c    **** }
  33:Syscalls.c    **** 
  34:Syscalls.c    **** int _lseek (int fd, int ptr, int dir) {
  30              		.loc 1 34 0
  31              		@ args = 0, pretend = 0, frame = 0
  32              		@ frame_needed = 0, uses_anonymous_args = 0
  33              		@ link register save eliminated.
  34              	.LVL0:
  35:Syscalls.c    ****   return (0);
  36:Syscalls.c    **** }
  35              		.loc 1 36 0
  36 0000 4FF00000 		mov	r0, #0
  37              	.LVL1:
  38 0004 7047     		bx	lr
  39              	.LFE4:
  40              		.size	_lseek, .-_lseek
  41 0006 00BF     		.align	2
  42              		.global	_open
  43              		.thumb
  44              		.thumb_func
  45              		.type	_open, %function
  46              	_open:
  47              	.LFB6:
  37:Syscalls.c    **** 
  38:Syscalls.c    **** int _write (int fd, char * ptr, int len) {
  39:Syscalls.c    ****   int i;
  40:Syscalls.c    **** 
  41:Syscalls.c    ****   for (i = 0; i < len; i++) putchar (*ptr++);
  42:Syscalls.c    ****   return (i);
  43:Syscalls.c    **** }
  44:Syscalls.c    **** 
  45:Syscalls.c    **** int _open (const char * path, int flags, ...) {
  48              		.loc 1 45 0
  49              		@ args = 4, pretend = 12, frame = 0
  50              		@ frame_needed = 0, uses_anonymous_args = 1
  51              		@ link register save eliminated.
  52              	.LVL2:
  53 0008 0EB4     		push	{r1, r2, r3}
  54              	.LCFI0:
  46:Syscalls.c    ****   return (-1);
  47:Syscalls.c    **** }
  55              		.loc 1 47 0
  56 000a 4FF0FF30 		mov	r0, #-1
  57              	.LVL3:
  58 000e 03B0     		add	sp, sp, #12
  59 0010 7047     		bx	lr
  60              	.LFE6:
  61              		.size	_open, .-_open
  62 0012 00BF     		.align	2
  63              		.global	_close
ARM GAS  D:\DOCUME~1\admin\LOCALS~1\Temp\cckKv2K2.s 			page 3


  64              		.thumb
  65              		.thumb_func
  66              		.type	_close, %function
  67              	_close:
  68              	.LFB7:
  48:Syscalls.c    **** 
  49:Syscalls.c    **** int _close (int fd) {
  69              		.loc 1 49 0
  70              		@ args = 0, pretend = 0, frame = 0
  71              		@ frame_needed = 0, uses_anonymous_args = 0
  72              		@ link register save eliminated.
  73              	.LVL4:
  50:Syscalls.c    ****   return (-1);
  51:Syscalls.c    **** }
  74              		.loc 1 51 0
  75 0014 4FF0FF30 		mov	r0, #-1
  76              	.LVL5:
  77 0018 7047     		bx	lr
  78              	.LFE7:
  79              		.size	_close, .-_close
  80 001a 00BF     		.align	2
  81              		.global	isatty
  82              		.thumb
  83              		.thumb_func
  84              		.type	isatty, %function
  85              	isatty:
  86              	.LFB9:
  52:Syscalls.c    **** 
  53:Syscalls.c    **** /*int _kill (int n, int m) {
  54:Syscalls.c    ****   errno = EINVAL;
  55:Syscalls.c    ****   return(-1);
  56:Syscalls.c    **** } */
  57:Syscalls.c    **** 
  58:Syscalls.c    **** /*int __attribute__((weak)) _getpid (int n __attribute__ ((unused))) {
  59:Syscalls.c    ****   return (1);
  60:Syscalls.c    **** }*/
  61:Syscalls.c    **** 
  62:Syscalls.c    **** extern int  __cs3_heap_start;
  63:Syscalls.c    **** extern int  __cs3_heap_end;
  64:Syscalls.c    **** 
  65:Syscalls.c    **** /*caddr_t _sbrk (int incr) {
  66:Syscalls.c    ****   static char * heap;
  67:Syscalls.c    ****          char * prev_heap;
  68:Syscalls.c    **** 
  69:Syscalls.c    ****   if (heap == NULL) {
  70:Syscalls.c    ****     heap = (char *)&__cs3_heap_start;
  71:Syscalls.c    ****   }
  72:Syscalls.c    ****   
  73:Syscalls.c    ****   prev_heap = heap;
  74:Syscalls.c    **** 
  75:Syscalls.c    ****   if ((heap + incr) > (char *)&__cs3_heap_end) {
  76:Syscalls.c    ****     errno = ENOMEM;
  77:Syscalls.c    ****     return (caddr_t) -1;
  78:Syscalls.c    ****   }
  79:Syscalls.c    ****   
  80:Syscalls.c    ****   heap += incr;
  81:Syscalls.c    **** 
ARM GAS  D:\DOCUME~1\admin\LOCALS~1\Temp\cckKv2K2.s 			page 4


  82:Syscalls.c    ****   return (caddr_t) prev_heap;
  83:Syscalls.c    **** }  */
  84:Syscalls.c    **** 
  85:Syscalls.c    **** int __attribute__((weak)) _fstat (int fd, struct stat * st) {
  86:Syscalls.c    ****   memset (st, 0, sizeof (* st));
  87:Syscalls.c    ****   st->st_mode = S_IFCHR;
  88:Syscalls.c    ****   return (0);
  89:Syscalls.c    **** }
  90:Syscalls.c    **** 
  91:Syscalls.c    **** /*int __attribute__((weak))_link (void) {
  92:Syscalls.c    ****   errno = ENOSYS;
  93:Syscalls.c    ****   return (-1);
  94:Syscalls.c    **** } */
  95:Syscalls.c    **** 
  96:Syscalls.c    **** /*int _unlink (const char *path) {
  97:Syscalls.c    ****   errno = ENOENT;
  98:Syscalls.c    ****   return (-1);
  99:Syscalls.c    **** } */
 100:Syscalls.c    **** 
 101:Syscalls.c    **** int isatty (int fd) {
  87              		.loc 1 101 0
  88              		@ args = 0, pretend = 0, frame = 0
  89              		@ frame_needed = 0, uses_anonymous_args = 0
  90              		@ link register save eliminated.
  91              	.LVL6:
 102:Syscalls.c    ****   return (1);
 103:Syscalls.c    **** }
  92              		.loc 1 103 0
  93 001c 4FF00100 		mov	r0, #1
  94              	.LVL7:
  95 0020 7047     		bx	lr
  96              	.LFE9:
  97              		.size	isatty, .-isatty
  98 0022 00BF     		.align	2
  99              		.weak	_fstat
 100              		.thumb
 101              		.thumb_func
 102              		.type	_fstat, %function
 103              	_fstat:
 104              	.LFB8:
 105              		.loc 1 85 0
 106              		@ args = 0, pretend = 0, frame = 0
 107              		@ frame_needed = 0, uses_anonymous_args = 0
 108              	.LVL8:
 109 0024 10B5     		push	{r4, lr}
 110              	.LCFI1:
 111 0026 0C46     		mov	r4, r1
 112              		.loc 1 86 0
 113 0028 0846     		mov	r0, r1
 114              	.LVL9:
 115 002a 4FF00001 		mov	r1, #0
 116              	.LVL10:
 117 002e 4FF03C02 		mov	r2, #60
 118 0032 FFF7FEFF 		bl	memset
 119              		.loc 1 87 0
 120 0036 4FF40053 		mov	r3, #8192
 121 003a 6360     		str	r3, [r4, #4]
ARM GAS  D:\DOCUME~1\admin\LOCALS~1\Temp\cckKv2K2.s 			page 5


 122              		.loc 1 89 0
 123 003c 4FF00000 		mov	r0, #0
 124 0040 10BD     		pop	{r4, pc}
 125              	.LFE8:
 126              		.size	_fstat, .-_fstat
 127 0042 00BF     		.align	2
 128              		.global	_write
 129              		.thumb
 130              		.thumb_func
 131              		.type	_write, %function
 132              	_write:
 133              	.LFB5:
 134              		.loc 1 38 0
 135              		@ args = 0, pretend = 0, frame = 0
 136              		@ frame_needed = 0, uses_anonymous_args = 0
 137              	.LVL11:
 138 0044 70B5     		push	{r4, r5, r6, lr}
 139              	.LCFI2:
 140 0046 0E46     		mov	r6, r1
 141              		.loc 1 41 0
 142 0048 151E     		subs	r5, r2, #0
 143 004a D8BF     		it	le
 144 004c 0020     		movle	r0, #0
 145              	.LVL12:
 146 004e 09DD     		ble	.L13
 147              	.LVL13:
 148 0050 4FF00004 		mov	r4, #0
 149              	.LVL14:
 150              	.L14:
 151 0054 305D     		ldrb	r0, [r6, r4]	@ zero_extendqisi2
 152 0056 FFF7FEFF 		bl	ser_putchar
 153 005a 04F10104 		add	r4, r4, #1
 154 005e A542     		cmp	r5, r4
 155 0060 F8DC     		bgt	.L14
 156 0062 2846     		mov	r0, r5
 157              	.LVL15:
 158              	.L13:
 159              	.LVL16:
 160              		.loc 1 43 0
 161 0064 70BD     		pop	{r4, r5, r6, pc}
 162              	.LFE5:
 163              		.size	_write, .-_write
 164 0066 00BF     		.align	2
 165              		.global	printf
 166              		.thumb
 167              		.thumb_func
 168              		.type	printf, %function
 169              	printf:
 170              	.LFB2:
 171              		.loc 1 17 0
 172              		@ args = 4, pretend = 16, frame = 0
 173              		@ frame_needed = 0, uses_anonymous_args = 1
 174              	.LVL17:
 175 0068 0FB4     		push	{r0, r1, r2, r3}
 176              	.LCFI3:
 177 006a 10B5     		push	{r4, lr}
 178              	.LCFI4:
ARM GAS  D:\DOCUME~1\admin\LOCALS~1\Temp\cckKv2K2.s 			page 6


 179              		.loc 1 17 0
 180 006c 029B     		ldr	r3, [sp, #8]
 181 006e 1878     		ldrb	r0, [r3, #0]	@ zero_extendqisi2
 182 0070 FFF7FEFF 		bl	ser_putchar
 183              		.loc 1 19 0
 184 0074 4FF00000 		mov	r0, #0
 185 0078 BDE81040 		pop	{r4, lr}
 186 007c 04B0     		add	sp, sp, #16
 187 007e 7047     		bx	lr
 188              	.LFE2:
 189              		.size	printf, .-printf
 190              		.align	2
 191              		.global	_read
 192              		.thumb
 193              		.thumb_func
 194              		.type	_read, %function
 195              	_read:
 196              	.LFB3:
 197              		.loc 1 21 0
 198              		@ args = 0, pretend = 0, frame = 0
 199              		@ frame_needed = 0, uses_anonymous_args = 0
 200              	.LVL18:
 201 0080 70B5     		push	{r4, r5, r6, lr}
 202              	.LCFI5:
 203 0082 0D46     		mov	r5, r1
 204              		.loc 1 25 0
 205 0084 161E     		subs	r6, r2, #0
 206 0086 D8BF     		it	le
 207 0088 0024     		movle	r4, #0
 208              	.LVL19:
 209 008a 0DDD     		ble	.L21
 210              	.LVL20:
 211 008c 4FF00004 		mov	r4, #0
 212              	.L22:
 213              		.loc 1 26 0
 214 0090 FFF7FEFF 		bl	ser_getchar
 215              	.LVL21:
 216 0094 C0B2     		uxtb	r0, r0
 217              	.LVL22:
 218              		.loc 1 27 0
 219 0096 0D28     		cmp	r0, #13
 220 0098 06D0     		beq	.L21
 221              		.loc 1 28 0
 222 009a 2855     		strb	r0, [r5, r4]
 223              		.loc 1 29 0
 224 009c FFF7FEFF 		bl	ser_putchar
 225              	.LVL23:
 226              		.loc 1 25 0
 227 00a0 04F10104 		add	r4, r4, #1
 228 00a4 A642     		cmp	r6, r4
 229 00a6 F3DC     		bgt	.L22
 230              	.LVL24:
 231              	.L21:
 232              		.loc 1 32 0
 233 00a8 C4EB0600 		rsb	r0, r4, r6
 234              	.LVL25:
 235 00ac 70BD     		pop	{r4, r5, r6, pc}
ARM GAS  D:\DOCUME~1\admin\LOCALS~1\Temp\cckKv2K2.s 			page 7


 236              	.LFE3:
 237              		.size	_read, .-_read
 238              		.section	.debug_frame,"",%progbits
 239              	.Lframe0:
 240 0000 0C000000 		.4byte	.LECIE0-.LSCIE0
 241              	.LSCIE0:
 242 0004 FFFFFFFF 		.4byte	0xffffffff
 243 0008 01       		.byte	0x1
 244 0009 00       		.ascii	"\000"
 245 000a 01       		.uleb128 0x1
 246 000b 7C       		.sleb128 -4
 247 000c 0E       		.byte	0xe
 248 000d 0C       		.byte	0xc
 249 000e 0D       		.uleb128 0xd
 250 000f 00       		.uleb128 0x0
 251              		.align	2
 252              	.LECIE0:
 253              	.LSFDE0:
 254 0010 0C000000 		.4byte	.LEFDE0-.LASFDE0
 255              	.LASFDE0:
 256 0014 00000000 		.4byte	.Lframe0
 257 0018 00000000 		.4byte	.LFB4
 258 001c 06000000 		.4byte	.LFE4-.LFB4
 259              		.align	2
 260              	.LEFDE0:
 261              	.LSFDE2:
 262 0020 18000000 		.4byte	.LEFDE2-.LASFDE2
 263              	.LASFDE2:
 264 0024 00000000 		.4byte	.Lframe0
 265 0028 08000000 		.4byte	.LFB6
 266 002c 0A000000 		.4byte	.LFE6-.LFB6
 267 0030 42       		.byte	0x4
 268              		.4byte	.LCFI0-.LFB6
 269 0031 0E       		.byte	0xe
 270 0032 0C       		.uleb128 0xc
 271 0033 83       		.byte	0x83
 272 0034 01       		.uleb128 0x1
 273 0035 82       		.byte	0x82
 274 0036 02       		.uleb128 0x2
 275 0037 81       		.byte	0x81
 276 0038 03       		.uleb128 0x3
 277 0039 000000   		.align	2
 278              	.LEFDE2:
 279              	.LSFDE4:
 280 003c 0C000000 		.4byte	.LEFDE4-.LASFDE4
 281              	.LASFDE4:
 282 0040 00000000 		.4byte	.Lframe0
 283 0044 14000000 		.4byte	.LFB7
 284 0048 06000000 		.4byte	.LFE7-.LFB7
 285              		.align	2
 286              	.LEFDE4:
 287              	.LSFDE6:
 288 004c 0C000000 		.4byte	.LEFDE6-.LASFDE6
 289              	.LASFDE6:
 290 0050 00000000 		.4byte	.Lframe0
 291 0054 1C000000 		.4byte	.LFB9
 292 0058 06000000 		.4byte	.LFE9-.LFB9
ARM GAS  D:\DOCUME~1\admin\LOCALS~1\Temp\cckKv2K2.s 			page 8


 293              		.align	2
 294              	.LEFDE6:
 295              	.LSFDE8:
 296 005c 14000000 		.4byte	.LEFDE8-.LASFDE8
 297              	.LASFDE8:
 298 0060 00000000 		.4byte	.Lframe0
 299 0064 24000000 		.4byte	.LFB8
 300 0068 1E000000 		.4byte	.LFE8-.LFB8
 301 006c 42       		.byte	0x4
 302              		.4byte	.LCFI1-.LFB8
 303 006d 0E       		.byte	0xe
 304 006e 08       		.uleb128 0x8
 305 006f 8E       		.byte	0x8e
 306 0070 01       		.uleb128 0x1
 307 0071 84       		.byte	0x84
 308 0072 02       		.uleb128 0x2
 309 0073 00       		.align	2
 310              	.LEFDE8:
 311              	.LSFDE10:
 312 0074 18000000 		.4byte	.LEFDE10-.LASFDE10
 313              	.LASFDE10:
 314 0078 00000000 		.4byte	.Lframe0
 315 007c 44000000 		.4byte	.LFB5
 316 0080 22000000 		.4byte	.LFE5-.LFB5
 317 0084 42       		.byte	0x4
 318              		.4byte	.LCFI2-.LFB5
 319 0085 0E       		.byte	0xe
 320 0086 10       		.uleb128 0x10
 321 0087 8E       		.byte	0x8e
 322 0088 01       		.uleb128 0x1
 323 0089 86       		.byte	0x86
 324 008a 02       		.uleb128 0x2
 325 008b 85       		.byte	0x85
 326 008c 03       		.uleb128 0x3
 327 008d 84       		.byte	0x84
 328 008e 04       		.uleb128 0x4
 329 008f 00       		.align	2
 330              	.LEFDE10:
 331              	.LSFDE12:
 332 0090 20000000 		.4byte	.LEFDE12-.LASFDE12
 333              	.LASFDE12:
 334 0094 00000000 		.4byte	.Lframe0
 335 0098 68000000 		.4byte	.LFB2
 336 009c 18000000 		.4byte	.LFE2-.LFB2
 337 00a0 42       		.byte	0x4
 338              		.4byte	.LCFI3-.LFB2
 339 00a1 0E       		.byte	0xe
 340 00a2 10       		.uleb128 0x10
 341 00a3 42       		.byte	0x4
 342              		.4byte	.LCFI4-.LCFI3
 343 00a4 0E       		.byte	0xe
 344 00a5 18       		.uleb128 0x18
 345 00a6 8E       		.byte	0x8e
 346 00a7 05       		.uleb128 0x5
 347 00a8 84       		.byte	0x84
 348 00a9 06       		.uleb128 0x6
 349 00aa 83       		.byte	0x83
ARM GAS  D:\DOCUME~1\admin\LOCALS~1\Temp\cckKv2K2.s 			page 9


 350 00ab 01       		.uleb128 0x1
 351 00ac 82       		.byte	0x82
 352 00ad 02       		.uleb128 0x2
 353 00ae 81       		.byte	0x81
 354 00af 03       		.uleb128 0x3
 355 00b0 80       		.byte	0x80
 356 00b1 04       		.uleb128 0x4
 357 00b2 0000     		.align	2
 358              	.LEFDE12:
 359              	.LSFDE14:
 360 00b4 18000000 		.4byte	.LEFDE14-.LASFDE14
 361              	.LASFDE14:
 362 00b8 00000000 		.4byte	.Lframe0
 363 00bc 80000000 		.4byte	.LFB3
 364 00c0 2E000000 		.4byte	.LFE3-.LFB3
 365 00c4 42       		.byte	0x4
 366              		.4byte	.LCFI5-.LFB3
 367 00c5 0E       		.byte	0xe
 368 00c6 10       		.uleb128 0x10
 369 00c7 8E       		.byte	0x8e
 370 00c8 01       		.uleb128 0x1
 371 00c9 86       		.byte	0x86
 372 00ca 02       		.uleb128 0x2
 373 00cb 85       		.byte	0x85
 374 00cc 03       		.uleb128 0x3
 375 00cd 84       		.byte	0x84
 376 00ce 04       		.uleb128 0x4
 377 00cf 00       		.align	2
 378              	.LEFDE14:
 379              		.text
 380              	.Letext0: