ARM GAS  D:\DOCUME~1\admin\LOCALS~1\Temp\cckKv2K2.s 			page 1


   1              		.syntax unified
   2              		.cpu cortex-m3
   3              		.fpu softvfp
   4              		.eabi_attribute 20, 1
   5              		.eabi_attribute 21, 1
   6              		.eabi_attribute 23, 3
   7              		.eabi_attribute 24, 1
   8              		.eabi_attribute 25, 1
   9              		.eabi_attribute 26, 1
  10              		.eabi_attribute 30, 1
  11              		.eabi_attribute 18, 4
  12              		.thumb
  13              		.file	"Syscalls.c"
  14              		.section	.debug_abbrev,"",%progbits
  15              	.Ldebug_abbrev0:
  16              		.section	.debug_info,"",%progbits
  17              	.Ldebug_info0:
  18              		.section	.debug_line,"",%progbits
  19              	.Ldebug_line0:
  20 0000 F3000000 		.text
  20      0200BB00 
  20      00000201 
  20      FB0E0D00 
  20      01010101 
  21              	.Ltext0:
  22              		.align	2
  23              		.global	_lseek
  24              		.thumb
  25              		.thumb_func
  26              		.type	_lseek, %function
  27              	_lseek:
  28              	.LFB4:
  29              		.file 1 "Syscalls.c"
   1:Syscalls.c    **** /* System Calls Remapping */
   2:Syscalls.c    **** 
   3:Syscalls.c    **** #include <sys/stat.h>
   4:Syscalls.c    **** #include <sys/time.h>
   5:Syscalls.c    **** #include <sys/times.h>
   6:Syscalls.c    **** #include <string.h>
   7:Syscalls.c    **** #include <errno.h>
   8:Syscalls.c    **** 
   9:Syscalls.c    **** #define putchar ser_putchar
  10:Syscalls.c    **** #define getchar ser_getchar
  11:Syscalls.c    **** 
  12:Syscalls.c    **** extern int putchar (int ch);
  13:Syscalls.c    **** extern int getchar (void);
  14:Syscalls.c    **** 
  15:Syscalls.c    **** int printf (char *text, ...)
  16:Syscalls.c    **** {
  17:Syscalls.c    **** 	putchar ((int) *text);
  18:Syscalls.c    **** return 0;
  19:Syscalls.c    **** }
  20:Syscalls.c    **** 
  21:Syscalls.c    **** int _read (int fd, char * ptr, int len) {
  22:Syscalls.c    ****   char c;
  23:Syscalls.c    ****   int  i;
  24:Syscalls.c    **** 
ARM GAS  D:\DOCUME~1\admin\LOCALS~1\Temp\cckKv2K2.s 			page 2


  25:Syscalls.c    ****   for (i = 0; i < len; i++) {
  26:Syscalls.c    ****     c = getchar();
  27:Syscalls.c    ****     if (c == 0x0D) break;
  28:Syscalls.c    ****     *ptr++ = c;
  29:Syscalls.c    ****     putchar(c);
  30:Syscalls.c    ****   }
  31:Syscalls.c    ****   return (len - i);
  32:Syscalls.c    **** }
  33:Syscalls.c    **** 
  34:Syscalls.c    **** int _lseek (int fd, int ptr, int dir) {
  30              		.loc 1 34 0
  31              		@ args = 0, pretend = 0, frame = 0
  32              		@ frame_needed = 0, uses_anonymous_args = 0
  33              		@ link register save eliminated.
  34              	.LVL0:
  35:Syscalls.c    ****   return (0);
  36:Syscalls.c    **** }
  35              		.loc 1 36 0
  36 0000 4FF00000 		mov	r0, #0
  37              	.LVL1:
  38 0004 7047     		bx	lr
  39              	.LFE4:
  40              		.size	_lseek, .-_lseek
  41 0006 00BF     		.align	2
  42              		.global	_open
  43              		.thumb
  44              		.thumb_func
  45              		.type	_open, %function
  46              	_open:
  47              	.LFB6:
  37:Syscalls.c    **** 
  38:Syscalls.c    **** int _write (int fd, char * ptr, int len) {
  39:Syscalls.c    ****   int i;
  40:Syscalls.c    **** 
  41:Syscalls.c    ****   for (i = 0; i < len; i++) putchar (*ptr++);
  42:Syscalls.c    ****   return (i);
  43:Syscalls.c    **** }
  44:Syscalls.c    **** 
  45:Syscalls.c    **** int _open (const char * path, int flags, ...) {
  48              		.loc 1 45 0
  49              		@ args = 4, pretend = 12, frame = 0
  50              		@ frame_needed = 0, uses_anonymous_args = 1
  51              		@ link register save eliminated.
  52              	.LVL2:
  53 0008 0EB4     		push	{r1, r2, r3}
  54              	.LCFI0:
  46:Syscalls.c    ****   return (-1);
  47:Syscalls.c    **** }
  55              		.loc 1 47 0
  56 000a 4FF0FF30 		mov	r0, #-1
  57              	.LVL3:
  58 000e 03B0     		add	sp, sp, #12
  59 0010 7047     		bx	lr
  60              	.LFE6:
  61              		.size	_open, .-_open
  62 0012 00BF     		.align	2
  63              		.global	_close
ARM GAS  D:\DOCUME~1\admin\LOCALS~1\Temp\cckKv2K2.s 			page 3


  64              		.thumb
  65              		.thumb_func
  66              		.type	_close, %function
  67              	_close:
  68              	.LFB7:
  48:Syscalls.c    **** 
  49:Syscalls.c    **** int _close (int fd) {
  69              		.loc 1 49 0
  70              		@ args = 0, pretend = 0, frame = 0
  71              		@ frame_needed = 0, uses_anonymous_args = 0
  72              		@ link register save eliminated.
  73              	.LVL4:
  50:Syscalls.c    ****   return (-1);
  51:Syscalls.c    **** }
  74              		.loc 1 51 0
  75 0014 4FF0FF30 		mov	r0, #-1
  76              	.LVL5:
  77 0018 7047     		bx	lr
  78              	.LFE7:
  79              		.size	_close, .-_close
  80 001a 00BF     		.align	2
  81              		.global	isatty
  82              		.thumb
  83              		.thumb_func
  84              		.type	isatty, %function
  85              	isatty:
  86              	.LFB9:
  52:Syscalls.c    **** 
  53:Syscalls.c    **** /*int _kill (int n, int m) {
  54:Syscalls.c    ****   errno = EINVAL;
  55:Syscalls.c    ****   return(-1);
  56:Syscalls.c    **** } */
  57:Syscalls.c    **** 
  58:Syscalls.c    **** /*int __attribute__((weak)) _getpid (int n __attribute__ ((unused))) {
  59:Syscalls.c    ****   return (1);
  60:Syscalls.c    **** }*/
  61:Syscalls.c    **** 
  62:Syscalls.c    **** extern int  __cs3_heap_start;
  63:Syscalls.c    **** extern int  __cs3_heap_end;
  64:Syscalls.c    **** 
  65:Syscalls.c    **** /*caddr_t _sbrk (int incr) {
  66:Syscalls.c    ****   static char * heap;
  67:Syscalls.c    ****          char * prev_heap;
  68:Syscalls.c    **** 
  69:Syscalls.c    ****   if (heap == NULL) {
  70:Syscalls.c    ****     heap = (char *)&__cs3_heap_start;
  71:Syscalls.c    ****   }
  72:Syscalls.c    ****   
  73:Syscalls.c    ****   prev_heap = heap;
  74:Syscalls.c    **** 
  75:Syscalls.c    ****   if ((heap + incr) > (char *)&__cs3_heap_end) {
  76:Syscalls.c    ****     errno = ENOMEM;
  77:Syscalls.c    ****     return (caddr_t) -1;
  78:Syscalls.c    ****   }
  79:Syscalls.c    ****   
  80:Syscalls.c    ****   heap += incr;
  81:Syscalls.c    **** 
ARM GAS  D:\DOCUME~1\admin\LOCALS~1\Temp\cckKv2K2.s 			page 4


  82:Syscalls.c    ****   return (caddr_t) prev_heap;
  83:Syscalls.c    **** }  */
  84:Syscalls.c    **** 
  85:Syscalls.c    **** int __attribute__((weak)) _fstat (int fd, struct stat * st) {
  86:Syscalls.c    ****   memset (st, 0, sizeof (* st));
  87:Syscalls.c    ****   st->st_mode = S_IFCHR;
  88:Syscalls.c    ****   return (0);
  89:Syscalls.c    **** }
  90:Syscalls.c    **** 
  91:Syscalls.c    **** /*int __attribute__((weak))_link (void) {
  92:Syscalls.c    ****   errno = ENOSYS;
  93:Syscalls.c    ****   return (-1);
  94:Syscalls.c    **** } */
  95:Syscalls.c    **** 
  96:Syscalls.c    **** /*int _unlink (const char *path) {
  97:Syscalls.c    ****   errno = ENOENT;
  98:Syscalls.c    ****   return (-1);
  99:Syscalls.c    **** } */
 100:Syscalls.c    **** 
 101:Syscalls.c    **** int isatty (int fd) {
  87              		.loc 1 101 0
  88              		@ args = 0, pretend = 0, frame = 0
  89              		@ frame_needed = 0, uses_anonymous_args = 0
  90              		@ link register save eliminated.
  91              	.LVL6:
 102:Syscalls.c    ****   return (1);
 103:Syscalls.c    **** }
  92              		.loc 1 103 0
  93 001c 4FF00100 		mov	r0, #1
  94              	.LVL7:
  95 0020 7047     		bx	lr
  96              	.LFE9:
  97              		.size	isatty, .-isatty
  98 0022 00BF     		.align	2
  99              		.weak	_fstat
 100              		.thumb
 101              		.thumb_func
 102              		.type	_fstat, %function
 103              	_fstat:
 104              	.LFB8:
 105              		.loc 1 85 0
 106              		@ args = 0, pretend = 0, frame = 0
 107              		@ frame_needed = 0, uses_anonymous_args = 0
 108              	.LVL8:
 109 0024 10B5     		push	{r4, lr}
 110              	.LCFI1:
 111 0026 0C46     		mov	r4, r1
 112              		.loc 1 86 0
 113 0028 0846     		mov	r0, r1
 114              	.LVL9:
 115 002a 4FF00001 		mov	r1, #0
 116              	.LVL10:
 117 002e 4FF03C02 		mov	r2, #60
 118 0032 FFF7FEFF 		bl	memset
 119              		.loc 1 87 0
 120 0036 4FF40053 		mov	r3, #8192
 121 003a 6360     		str	r3, [r4, #4]
ARM GAS  D:\DOCUME~1\admin\LOCALS~1\Temp\cckKv2K2.s 			page 5


 122              		.loc 1 89 0
 123 003c 4FF00000 		mov	r0, #0
 124 0040 10BD     		pop	{r4, pc}
 125              	.LFE8:
 126              		.size	_fstat, .-_fstat
 127 0042 00BF     		.align	2
 128              		.global	_write
 129              		.thumb
 130              		.thumb_func
 131              		.type	_write, %function
 132              	_write:
 133              	.LFB5:
 134              		.loc 1 38 0
 135              		@ args = 0, pretend = 0, frame = 0
 136              		@ frame_needed = 0, uses_anonymous_args = 0
 137              	.LVL11:
 138 0044 70B5     		push	{r4, r5, r6, lr}
 139              	.LCFI2:
 140 0046 0E46     		mov	r6, r1
 141              		.loc 1 41 0
 142 0048 151E     		subs	r5, r2, #0
 143 004a D8BF     		it	le
 144 004c 0020     		movle	r0, #0
 145              	.LVL12:
 146 004e 09DD     		ble	.L13
 147              	.LVL13:
 148 0050 4FF00004 		mov	r4, #0
 149              	.LVL14:
 150              	.L14:
 151 0054 305D     		ldrb	r0, [r6, r4]	@ zero_extendqisi2
 152 0056 FFF7FEFF 		bl	ser_putchar
 153 005a 04F10104 		add	r4, r4, #1
 154 005e A542     		cmp	r5, r4
 155 0060 F8DC     		bgt	.L14
 156 0062 2846     		mov	r0, r5
 157              	.LVL15:
 158              	.L13:
 159              	.LVL16:
 160              		.loc 1 43 0
 161 0064 70BD     		pop	{r4, r5, r6, pc}
 162              	.LFE5:
 163              		.size	_write, .-_write
 164 0066 00BF     		.align	2
 165              		.global	printf
 166              		.thumb
 167              		.thumb_func
 168              		.type	printf, %function
 169              	printf:
 170              	.LFB2:
 171              		.loc 1 17 0
 172              		@ args = 4, pretend = 16, frame = 0
 173              		@ frame_needed = 0, uses_anonymous_args = 1
 174              	.LVL17:
 175 0068 0FB4     		push	{r0, r1, r2, r3}
 176              	.LCFI3:
 177 006a 10B5     		push	{r4, lr}
 178              	.LCFI4:
ARM GAS  D:\DOCUME~1\admin\LOCALS~1\Temp\cckKv2K2.s 			page 6


 179              		.loc 1 17 0
 180 006c 029B     		ldr	r3, [sp, #8]
 181 006e 1878     		ldrb	r0, [r3, #0]	@ zero_extendqisi2
 182 0070 FFF7FEFF 		bl	ser_putchar
 183              		.loc 1 19 0
 184 0074 4FF00000 		mov	r0, #0
 185 0078 BDE81040 		pop	{r4, lr}
 186 007c 04B0     		add	sp, sp, #16
 187 007e 7047     		bx	lr
 188              	.LFE2:
 189              		.size	printf, .-printf
 190              		.align	2
 191              		.global	_read
 192              		.thumb
 193              		.thumb_func
 194              		.type	_read, %function
 195              	_read:
 196              	.LFB3:
 197              		.loc 1 21 0
 198              		@ args = 0, pretend = 0, frame = 0
 199              		@ frame_needed = 0, uses_anonymous_args = 0
 200              	.LVL18:
 201 0080 70B5     		push	{r4, r5, r6, lr}
 202              	.LCFI5:
 203 0082 0D46     		mov	r5, r1
 204              		.loc 1 25 0
 205 0084 161E     		subs	r6, r2, #0
 206 0086 D8BF     		it	le
 207 0088 0024     		movle	r4, #0
 208              	.LVL19:
 209 008a 0DDD     		ble	.L21
 210              	.LVL20:
 211 008c 4FF00004 		mov	r4, #0
 212              	.L22:
 213              		.loc 1 26 0
 214 0090 FFF7FEFF 		bl	ser_getchar
 215              	.LVL21:
 216 0094 C0B2     		uxtb	r0, r0
 217              	.LVL22:
 218              		.loc 1 27 0
 219 0096 0D28     		cmp	r0, #13
 220 0098 06D0     		beq	.L21
 221              		.loc 1 28 0
 222 009a 2855     		strb	r0, [r5, r4]
 223              		.loc 1 29 0
 224 009c FFF7FEFF 		bl	ser_putchar
 225              	.LVL23:
 226              		.loc 1 25 0
 227 00a0 04F10104 		add	r4, r4, #1
 228 00a4 A642     		cmp	r6, r4
 229 00a6 F3DC     		bgt	.L22
 230              	.LVL24:
 231              	.L21:
 232              		.loc 1 32 0
 233 00a8 C4EB0600 		rsb	r0, r4, r6
 234              	.LVL25:
 235 00ac 70BD     		pop	{r4, r5, r6, pc}
ARM GAS  D:\DOCUME~1\admin\LOCALS~1\Temp\cckKv2K2.s 			page 7


 236              	.LFE3:
 237              		.size	_read, .-_read
 238              		.section	.debug_frame,"",%progbits
 239              	.Lframe0:
 240 0000 0C000000 		.4byte	.LECIE0-.LSCIE0
 241              	.LSCIE0:
 242 0004 FFFFFFFF 		.4byte	0xffffffff
 243 0008 01       		.byte	0x1
 244 0009 00       		.ascii	"\000"
 245 000a 01       		.uleb128 0x1
 246 000b 7C       		.sleb128 -4
 247 000c 0E       		.byte	0xe
 248 000d 0C       		.byte	0xc
 249 000e 0D       		.uleb128 0xd
 250 000f 00       		.uleb128 0x0
 251              		.align	2
 252              	.LECIE0:
 253              	.LSFDE0:
 254 0010 0C000000 		.4byte	.LEFDE0-.LASFDE0
 255              	.LASFDE0:
 256 0014 00000000 		.4byte	.Lframe0
 257 0018 00000000 		.4byte	.LFB4
 258 001c 06000000 		.4byte	.LFE4-.LFB4
 259              		.align	2
 260              	.LEFDE0:
 261              	.LSFDE2:
 262 0020 18000000 		.4byte	.LEFDE2-.LASFDE2
 263              	.LASFDE2:
 264 0024 00000000 		.4byte	.Lframe0
 265 0028 08000000 		.4byte	.LFB6
 266 002c 0A000000 		.4byte	.LFE6-.LFB6
 267 0030 42       		.byte	0x4
 268              		.4byte	.LCFI0-.LFB6
 269 0031 0E       		.byte	0xe
 270 0032 0C       		.uleb128 0xc
 271 0033 83       		.byte	0x83
 272 0034 01       		.uleb128 0x1
 273 0035 82       		.byte	0x82
 274 0036 02       		.uleb128 0x2
 275 0037 81       		.byte	0x81
 276 0038 03       		.uleb128 0x3
 277 0039 000000   		.align	2
 278              	.LEFDE2:
 279              	.LSFDE4:
 280 003c 0C000000 		.4byte	.LEFDE4-.LASFDE4
 281              	.LASFDE4:
 282 0040 00000000 		.4byte	.Lframe0
 283 0044 14000000 		.4byte	.LFB7
 284 0048 06000000 		.4byte	.LFE7-.LFB7
 285              		.align	2
 286              	.LEFDE4:
 287              	.LSFDE6:
 288 004c 0C000000 		.4byte	.LEFDE6-.LASFDE6
 289              	.LASFDE6:
 290 0050 00000000 		.4byte	.Lframe0
 291 0054 1C000000 		.4byte	.LFB9
 292 0058 06000000 		.4byte	.LFE9-.LFB9
ARM GAS  D:\DOCUME~1\admin\LOCALS~1\Temp\cckKv2K2.s 			page 8


 293              		.align	2
 294              	.LEFDE6:
 295              	.LSFDE8:
 296 005c 14000000 		.4byte	.LEFDE8-.LASFDE8
 297              	.LASFDE8:
 298 0060 00000000 		.4byte	.Lframe0
 299 0064 24000000 		.4byte	.LFB8
 300 0068 1E000000 		.4byte	.LFE8-.LFB8
 301 006c 42       		.byte	0x4
 302              		.4byte	.LCFI1-.LFB8
 303 006d 0E       		.byte	0xe
 304 006e 08       		.uleb128 0x8
 305 006f 8E       		.byte	0x8e
 306 0070 01       		.uleb128 0x1
 307 0071 84       		.byte	0x84
 308 0072 02       		.uleb128 0x2
 309 0073 00       		.align	2
 310              	.LEFDE8:
 311              	.LSFDE10:
 312 0074 18000000 		.4byte	.LEFDE10-.LASFDE10
 313              	.LASFDE10:
 314 0078 00000000 		.4byte	.Lframe0
 315 007c 44000000 		.4byte	.LFB5
 316 0080 22000000 		.4byte	.LFE5-.LFB5
 317 0084 42       		.byte	0x4
 318              		.4byte	.LCFI2-.LFB5
 319 0085 0E       		.byte	0xe
 320 0086 10       		.uleb128 0x10
 321 0087 8E       		.byte	0x8e
 322 0088 01       		.uleb128 0x1
 323 0089 86       		.byte	0x86
 324 008a 02       		.uleb128 0x2
 325 008b 85       		.byte	0x85
 326 008c 03       		.uleb128 0x3
 327 008d 84       		.byte	0x84
 328 008e 04       		.uleb128 0x4
 329 008f 00       		.align	2
 330              	.LEFDE10:
 331              	.LSFDE12:
 332 0090 20000000 		.4byte	.LEFDE12-.LASFDE12
 333              	.LASFDE12:
 334 0094 00000000 		.4byte	.Lframe0
 335 0098 68000000 		.4byte	.LFB2
 336 009c 18000000 		.4byte	.LFE2-.LFB2
 337 00a0 42       		.byte	0x4
 338              		.4byte	.LCFI3-.LFB2
 339 00a1 0E       		.byte	0xe
 340 00a2 10       		.uleb128 0x10
 341 00a3 42       		.byte	0x4
 342              		.4byte	.LCFI4-.LCFI3
 343 00a4 0E       		.byte	0xe
 344 00a5 18       		.uleb128 0x18
 345 00a6 8E       		.byte	0x8e
 346 00a7 05       		.uleb128 0x5
 347 00a8 84       		.byte	0x84
 348 00a9 06       		.uleb128 0x6
 349 00aa 83       		.byte	0x83
ARM GAS  D:\DOCUME~1\admin\LOCALS~1\Temp\cckKv2K2.s 			page 9


 350 00ab 01       		.uleb128 0x1
 351 00ac 82       		.byte	0x82
 352 00ad 02       		.uleb128 0x2
 353 00ae 81       		.byte	0x81
 354 00af 03       		.uleb128 0x3
 355 00b0 80       		.byte	0x80
 356 00b1 04       		.uleb128 0x4
 357 00b2 0000     		.align	2
 358              	.LEFDE12:
 359              	.LSFDE14:
 360 00b4 18000000 		.4byte	.LEFDE14-.LASFDE14
 361              	.LASFDE14:
 362 00b8 00000000 		.4byte	.Lframe0
 363 00bc 80000000 		.4byte	.LFB3
 364 00c0 2E000000 		.4byte	.LFE3-.LFB3
 365 00c4 42       		.byte	0x4
 366              		.4byte	.LCFI5-.LFB3
 367 00c5 0E       		.byte	0xe
 368 00c6 10       		.uleb128 0x10
 369 00c7 8E       		.byte	0x8e
 370 00c8 01       		.uleb128 0x1
 371 00c9 86       		.byte	0x86
 372 00ca 02       		.uleb128 0x2
 373 00cb 85       		.byte	0x85
 374 00cc 03       		.uleb128 0x3
 375 00cd 84       		.byte	0x84
 376 00ce 04       		.uleb128 0x4
 377 00cf 00       		.align	2
 378              	.LEFDE14:
 379              		.text
 380              	.Letext0:
 381 00ae 00BF     		.section	.debug_loc,"",%progbits
 382              	.Ldebug_loc0:
 383              	.LLST1:
 384 0000 00000000 		.4byte	.LVL0-.Ltext0
 385 0004 04000000 		.4byte	.LVL1-.Ltext0
 386 0008 0100     		.2byte	0x1
 387 000a 50       		.byte	0x50
 388 000b 00000000 		.4byte	0x0
 389 000f 00000000 		.4byte	0x0
 390              	.LLST2:
 391 0013 08000000 		.4byte	.LFB6-.Ltext0
 392 0017 0A000000 		.4byte	.LCFI0-.Ltext0
 393 001b 0100     		.2byte	0x1
 394 001d 5D       		.byte	0x5d
 395 001e 0A000000 		.4byte	.LCFI0-.Ltext0
 396 0022 12000000 		.4byte	.LFE6-.Ltext0
 397 0026 0200     		.2byte	0x2
 398 0028 7D       		.byte	0x7d
 399 0029 0C       		.sleb128 12
 400 002a 00000000 		.4byte	0x0
 401 002e 00000000 		.4byte	0x0
 402              	.LLST3:
 403 0032 08000000 		.4byte	.LVL2-.Ltext0
 404 0036 0E000000 		.4byte	.LVL3-.Ltext0
 405 003a 0100     		.2byte	0x1
 406 003c 50       		.byte	0x50
ARM GAS  D:\DOCUME~1\admin\LOCALS~1\Temp\cckKv2K2.s 			page 10


 407 003d 00000000 		.4byte	0x0
 408 0041 00000000 		.4byte	0x0
 409              	.LLST5:
 410 0045 14000000 		.4byte	.LVL4-.Ltext0
 411 0049 18000000 		.4byte	.LVL5-.Ltext0
 412 004d 0100     		.2byte	0x1
 413 004f 50       		.byte	0x50
 414 0050 00000000 		.4byte	0x0
 415 0054 00000000 		.4byte	0x0
 416              	.LLST7:
 417 0058 1C000000 		.4byte	.LVL6-.Ltext0
 418 005c 20000000 		.4byte	.LVL7-.Ltext0
 419 0060 0100     		.2byte	0x1
 420 0062 50       		.byte	0x50
 421 0063 00000000 		.4byte	0x0
 422 0067 00000000 		.4byte	0x0
 423              	.LLST8:
 424 006b 24000000 		.4byte	.LFB8-.Ltext0
 425 006f 26000000 		.4byte	.LCFI1-.Ltext0
 426 0073 0100     		.2byte	0x1
 427 0075 5D       		.byte	0x5d
 428 0076 26000000 		.4byte	.LCFI1-.Ltext0
 429 007a 42000000 		.4byte	.LFE8-.Ltext0
 430 007e 0200     		.2byte	0x2
 431 0080 7D       		.byte	0x7d
 432 0081 08       		.sleb128 8
 433 0082 00000000 		.4byte	0x0
 434 0086 00000000 		.4byte	0x0
 435              	.LLST9:
 436 008a 24000000 		.4byte	.LVL8-.Ltext0
 437 008e 2A000000 		.4byte	.LVL9-.Ltext0
 438 0092 0100     		.2byte	0x1
 439 0094 50       		.byte	0x50
 440 0095 00000000 		.4byte	0x0
 441 0099 00000000 		.4byte	0x0
 442              	.LLST10:
 443 009d 24000000 		.4byte	.LVL8-.Ltext0
 444 00a1 2E000000 		.4byte	.LVL10-.Ltext0
 445 00a5 0100     		.2byte	0x1
 446 00a7 51       		.byte	0x51
 447 00a8 2E000000 		.4byte	.LVL10-.Ltext0
 448 00ac 42000000 		.4byte	.LFE8-.Ltext0
 449 00b0 0100     		.2byte	0x1
 450 00b2 54       		.byte	0x54
 451 00b3 00000000 		.4byte	0x0
 452 00b7 00000000 		.4byte	0x0
 453              	.LLST11:
 454 00bb 44000000 		.4byte	.LFB5-.Ltext0
 455 00bf 46000000 		.4byte	.LCFI2-.Ltext0
 456 00c3 0100     		.2byte	0x1
 457 00c5 5D       		.byte	0x5d
 458 00c6 46000000 		.4byte	.LCFI2-.Ltext0
 459 00ca 66000000 		.4byte	.LFE5-.Ltext0
 460 00ce 0200     		.2byte	0x2
 461 00d0 7D       		.byte	0x7d
 462 00d1 10       		.sleb128 16
 463 00d2 00000000 		.4byte	0x0
ARM GAS  D:\DOCUME~1\admin\LOCALS~1\Temp\cckKv2K2.s 			page 11


 464 00d6 00000000 		.4byte	0x0
 465              	.LLST12:
 466 00da 44000000 		.4byte	.LVL11-.Ltext0
 467 00de 4E000000 		.4byte	.LVL12-.Ltext0
 468 00e2 0100     		.2byte	0x1
 469 00e4 50       		.byte	0x50
 470 00e5 00000000 		.4byte	0x0
 471 00e9 00000000 		.4byte	0x0
 472              	.LLST13:
 473 00ed 44000000 		.4byte	.LVL11-.Ltext0
 474 00f1 50000000 		.4byte	.LVL13-.Ltext0
 475 00f5 0100     		.2byte	0x1
 476 00f7 51       		.byte	0x51
 477 00f8 50000000 		.4byte	.LVL13-.Ltext0
 478 00fc 66000000 		.4byte	.LFE5-.Ltext0
 479 0100 0100     		.2byte	0x1
 480 0102 56       		.byte	0x56
 481 0103 00000000 		.4byte	0x0
 482 0107 00000000 		.4byte	0x0
 483              	.LLST14:
 484 010b 44000000 		.4byte	.LVL11-.Ltext0
 485 010f 50000000 		.4byte	.LVL13-.Ltext0
 486 0113 0100     		.2byte	0x1
 487 0115 52       		.byte	0x52
 488 0116 50000000 		.4byte	.LVL13-.Ltext0
 489 011a 66000000 		.4byte	.LFE5-.Ltext0
 490 011e 0100     		.2byte	0x1
 491 0120 55       		.byte	0x55
 492 0121 00000000 		.4byte	0x0
 493 0125 00000000 		.4byte	0x0
 494              	.LLST15:
 495 0129 4E000000 		.4byte	.LVL12-.Ltext0
 496 012d 54000000 		.4byte	.LVL14-.Ltext0
 497 0131 0100     		.2byte	0x1
 498 0133 50       		.byte	0x50
 499 0134 54000000 		.4byte	.LVL14-.Ltext0
 500 0138 64000000 		.4byte	.LVL15-.Ltext0
 501 013c 0100     		.2byte	0x1
 502 013e 54       		.byte	0x54
 503 013f 64000000 		.4byte	.LVL15-.Ltext0
 504 0143 64000000 		.4byte	.LVL16-.Ltext0
 505 0147 0100     		.2byte	0x1
 506 0149 50       		.byte	0x50
 507 014a 00000000 		.4byte	0x0
 508 014e 00000000 		.4byte	0x0
 509              	.LLST16:
 510 0152 68000000 		.4byte	.LFB2-.Ltext0
 511 0156 6A000000 		.4byte	.LCFI3-.Ltext0
 512 015a 0100     		.2byte	0x1
 513 015c 5D       		.byte	0x5d
 514 015d 6A000000 		.4byte	.LCFI3-.Ltext0
 515 0161 6C000000 		.4byte	.LCFI4-.Ltext0
 516 0165 0200     		.2byte	0x2
 517 0167 7D       		.byte	0x7d
 518 0168 10       		.sleb128 16
 519 0169 6C000000 		.4byte	.LCFI4-.Ltext0
 520 016d 80000000 		.4byte	.LFE2-.Ltext0
ARM GAS  D:\DOCUME~1\admin\LOCALS~1\Temp\cckKv2K2.s 			page 12


 521 0171 0200     		.2byte	0x2
 522 0173 7D       		.byte	0x7d
 523 0174 18       		.sleb128 24
 524 0175 00000000 		.4byte	0x0
 525 0179 00000000 		.4byte	0x0
 526              	.LLST17:
 527 017d 80000000 		.4byte	.LFB3-.Ltext0
 528 0181 82000000 		.4byte	.LCFI5-.Ltext0
 529 0185 0100     		.2byte	0x1
 530 0187 5D       		.byte	0x5d
 531 0188 82000000 		.4byte	.LCFI5-.Ltext0
 532 018c AE000000 		.4byte	.LFE3-.Ltext0
 533 0190 0200     		.2byte	0x2
 534 0192 7D       		.byte	0x7d
 535 0193 10       		.sleb128 16
 536 0194 00000000 		.4byte	0x0
 537 0198 00000000 		.4byte	0x0
 538              	.LLST18:
 539 019c 80000000 		.4byte	.LVL18-.Ltext0
 540 01a0 94000000 		.4byte	.LVL21-.Ltext0
 541 01a4 0100     		.2byte	0x1
 542 01a6 50       		.byte	0x50
 543 01a7 A8000000 		.4byte	.LVL24-.Ltext0
 544 01ab AC000000 		.4byte	.LVL25-.Ltext0
 545 01af 0100     		.2byte	0x1
 546 01b1 50       		.byte	0x50
 547 01b2 00000000 		.4byte	0x0
 548 01b6 00000000 		.4byte	0x0
 549              	.LLST19:
 550 01ba 80000000 		.4byte	.LVL18-.Ltext0
 551 01be 8C000000 		.4byte	.LVL20-.Ltext0
 552 01c2 0100     		.2byte	0x1
 553 01c4 51       		.byte	0x51
 554 01c5 8C000000 		.4byte	.LVL20-.Ltext0
 555 01c9 AE000000 		.4byte	.LFE3-.Ltext0
 556 01cd 0100     		.2byte	0x1
 557 01cf 55       		.byte	0x55
 558 01d0 00000000 		.4byte	0x0
 559 01d4 00000000 		.4byte	0x0
 560              	.LLST20:
 561 01d8 80000000 		.4byte	.LVL18-.Ltext0
 562 01dc 8C000000 		.4byte	.LVL20-.Ltext0
 563 01e0 0100     		.2byte	0x1
 564 01e2 52       		.byte	0x52
 565 01e3 8C000000 		.4byte	.LVL20-.Ltext0
 566 01e7 AE000000 		.4byte	.LFE3-.Ltext0
 567 01eb 0100     		.2byte	0x1
 568 01ed 56       		.byte	0x56
 569 01ee 00000000 		.4byte	0x0
 570 01f2 00000000 		.4byte	0x0
 571              	.LLST21:
 572 01f6 96000000 		.4byte	.LVL22-.Ltext0
 573 01fa A0000000 		.4byte	.LVL23-.Ltext0
 574 01fe 0100     		.2byte	0x1
 575 0200 50       		.byte	0x50
 576 0201 A8000000 		.4byte	.LVL24-.Ltext0
 577 0205 AC000000 		.4byte	.LVL25-.Ltext0
ARM GAS  D:\DOCUME~1\admin\LOCALS~1\Temp\cckKv2K2.s 			page 13


 578 0209 0100     		.2byte	0x1
 579 020b 50       		.byte	0x50
 580 020c 00000000 		.4byte	0x0
 581 0210 00000000 		.4byte	0x0
 582              		.file 2 "c:\\program files\\codesourcery\\sourcery g++ lite\\bin\\../lib/gcc/arm-none-eabi/4.3.3/.
 583              		.file 3 "c:\\program files\\codesourcery\\sourcery g++ lite\\bin\\../lib/gcc/arm-none-eabi/4.3.3/.
 584              		.file 4 "c:\\program files\\codesourcery\\sourcery g++ lite\\bin\\../lib/gcc/arm-none-eabi/4.3.3/.
 585              		.section	.debug_info
 586 0000 08040000 		.4byte	0x408
 587 0004 0200     		.2byte	0x2
 588 0006 00000000 		.4byte	.Ldebug_abbrev0
 589 000a 04       		.byte	0x4
 590 000b 01       		.uleb128 0x1
 591 000c E4000000 		.4byte	.LASF49
 592 0010 01       		.byte	0x1
 593 0011 61010000 		.4byte	.LASF50
 594 0015 99010000 		.4byte	.LASF51
 595 0019 00000000 		.4byte	.Ltext0
 596 001d AE000000 		.4byte	.Letext0
 597 0021 00000000 		.4byte	.Ldebug_line0
 598 0025 02       		.uleb128 0x2
 599 0026 01       		.byte	0x1
 600 0027 06       		.byte	0x6
 601 0028 0E020000 		.4byte	.LASF0
 602 002c 02       		.uleb128 0x2
 603 002d 01       		.byte	0x1
 604 002e 08       		.byte	0x8
 605 002f 90000000 		.4byte	.LASF1
 606 0033 02       		.uleb128 0x2
 607 0034 02       		.byte	0x2
 608 0035 05       		.byte	0x5
 609 0036 8F010000 		.4byte	.LASF2
 610 003a 02       		.uleb128 0x2
 611 003b 02       		.byte	0x2
 612 003c 07       		.byte	0x7
 613 003d D1000000 		.4byte	.LASF3
 614 0041 03       		.uleb128 0x3
 615 0042 04       		.byte	0x4
 616 0043 05       		.byte	0x5
 617 0044 696E7400 		.ascii	"int\000"
 618 0048 02       		.uleb128 0x2
 619 0049 04       		.byte	0x4
 620 004a 07       		.byte	0x7
 621 004b 08010000 		.4byte	.LASF4
 622 004f 02       		.uleb128 0x2
 623 0050 08       		.byte	0x8
 624 0051 05       		.byte	0x5
 625 0052 6C010000 		.4byte	.LASF5
 626 0056 02       		.uleb128 0x2
 627 0057 08       		.byte	0x8
 628 0058 07       		.byte	0x7
 629 0059 1B010000 		.4byte	.LASF6
 630 005d 04       		.uleb128 0x4
 631 005e F0000000 		.4byte	.LASF8
 632 0062 02       		.byte	0x2
 633 0063 10       		.byte	0x10
 634 0064 68000000 		.4byte	0x68
ARM GAS  D:\DOCUME~1\admin\LOCALS~1\Temp\cckKv2K2.s 			page 14


 635 0068 02       		.uleb128 0x2
 636 0069 04       		.byte	0x4
 637 006a 05       		.byte	0x5
 638 006b 00020000 		.4byte	.LASF7
 639 006f 04       		.uleb128 0x4
 640 0070 A5000000 		.4byte	.LASF9
 641 0074 02       		.byte	0x2
 642 0075 18       		.byte	0x18
 643 0076 33000000 		.4byte	0x33
 644 007a 04       		.uleb128 0x4
 645 007b 30000000 		.4byte	.LASF10
 646 007f 02       		.byte	0x2
 647 0080 1D       		.byte	0x1d
 648 0081 3A000000 		.4byte	0x3a
 649 0085 04       		.uleb128 0x4
 650 0086 59010000 		.4byte	.LASF11
 651 008a 02       		.byte	0x2
 652 008b 20       		.byte	0x20
 653 008c 3A000000 		.4byte	0x3a
 654 0090 05       		.uleb128 0x5
 655 0091 04       		.byte	0x4
 656 0092 07       		.byte	0x7
 657 0093 02       		.uleb128 0x2
 658 0094 04       		.byte	0x4
 659 0095 07       		.byte	0x7
 660 0096 B7000000 		.4byte	.LASF12
 661 009a 06       		.uleb128 0x6
 662 009b 04       		.byte	0x4
 663 009c A0000000 		.4byte	0xa0
 664 00a0 02       		.uleb128 0x2
 665 00a1 01       		.byte	0x1
 666 00a2 08       		.byte	0x8
 667 00a3 15000000 		.4byte	.LASF13
 668 00a7 06       		.uleb128 0x6
 669 00a8 04       		.byte	0x4
 670 00a9 AD000000 		.4byte	0xad
 671 00ad 07       		.uleb128 0x7
 672 00ae A0000000 		.4byte	0xa0
 673 00b2 04       		.uleb128 0x4
 674 00b3 3F010000 		.4byte	.LASF14
 675 00b7 03       		.byte	0x3
 676 00b8 6D       		.byte	0x6d
 677 00b9 68000000 		.4byte	0x68
 678 00bd 04       		.uleb128 0x4
 679 00be 55000000 		.4byte	.LASF15
 680 00c2 03       		.byte	0x3
 681 00c3 85       		.byte	0x85
 682 00c4 3A000000 		.4byte	0x3a
 683 00c8 04       		.uleb128 0x4
 684 00c9 0F000000 		.4byte	.LASF16
 685 00cd 03       		.byte	0x3
 686 00ce A2       		.byte	0xa2
 687 00cf 5D000000 		.4byte	0x5d
 688 00d3 04       		.uleb128 0x4
 689 00d4 46010000 		.4byte	.LASF17
 690 00d8 03       		.byte	0x3
 691 00d9 A3       		.byte	0xa3
ARM GAS  D:\DOCUME~1\admin\LOCALS~1\Temp\cckKv2K2.s 			page 15


 692 00da 6F000000 		.4byte	0x6f
 693 00de 04       		.uleb128 0x4
 694 00df 8A000000 		.4byte	.LASF18
 695 00e3 03       		.byte	0x3
 696 00e4 A4       		.byte	0xa4
 697 00e5 7A000000 		.4byte	0x7a
 698 00e9 04       		.uleb128 0x4
 699 00ea 09000000 		.4byte	.LASF19
 700 00ee 03       		.byte	0x3
 701 00ef A5       		.byte	0xa5
 702 00f0 85000000 		.4byte	0x85
 703 00f4 04       		.uleb128 0x4
 704 00f5 1A020000 		.4byte	.LASF20
 705 00f9 03       		.byte	0x3
 706 00fa BA       		.byte	0xba
 707 00fb 48000000 		.4byte	0x48
 708 00ff 04       		.uleb128 0x4
 709 0100 1F000000 		.4byte	.LASF21
 710 0104 03       		.byte	0x3
 711 0105 BF       		.byte	0xbf
 712 0106 3A000000 		.4byte	0x3a
 713 010a 08       		.uleb128 0x8
 714 010b 1A000000 		.4byte	.LASF52
 715 010f 3C       		.byte	0x3c
 716 0110 04       		.byte	0x4
 717 0111 1A       		.byte	0x1a
 718 0112 05020000 		.4byte	0x205
 719 0116 09       		.uleb128 0x9
 720 0117 E7010000 		.4byte	.LASF22
 721 011b 04       		.byte	0x4
 722 011c 1B       		.byte	0x1b
 723 011d D3000000 		.4byte	0xd3
 724 0121 02       		.byte	0x2
 725 0122 23       		.byte	0x23
 726 0123 00       		.uleb128 0x0
 727 0124 09       		.uleb128 0x9
 728 0125 5B000000 		.4byte	.LASF23
 729 0129 04       		.byte	0x4
 730 012a 1C       		.byte	0x1c
 731 012b BD000000 		.4byte	0xbd
 732 012f 02       		.byte	0x2
 733 0130 23       		.byte	0x23
 734 0131 02       		.uleb128 0x2
 735 0132 09       		.uleb128 0x9
 736 0133 C9000000 		.4byte	.LASF24
 737 0137 04       		.byte	0x4
 738 0138 1D       		.byte	0x1d
 739 0139 F4000000 		.4byte	0xf4
 740 013d 02       		.byte	0x2
 741 013e 23       		.byte	0x23
 742 013f 04       		.uleb128 0x4
 743 0140 09       		.uleb128 0x9
 744 0141 38000000 		.4byte	.LASF25
 745 0145 04       		.byte	0x4
 746 0146 1E       		.byte	0x1e
 747 0147 FF000000 		.4byte	0xff
 748 014b 02       		.byte	0x2
ARM GAS  D:\DOCUME~1\admin\LOCALS~1\Temp\cckKv2K2.s 			page 16


 749 014c 23       		.byte	0x23
 750 014d 08       		.uleb128 0x8
 751 014e 09       		.uleb128 0x9
 752 014f 52010000 		.4byte	.LASF26
 753 0153 04       		.byte	0x4
 754 0154 1F       		.byte	0x1f
 755 0155 DE000000 		.4byte	0xde
 756 0159 02       		.byte	0x2
 757 015a 23       		.byte	0x23
 758 015b 0A       		.uleb128 0xa
 759 015c 09       		.uleb128 0x9
 760 015d EE010000 		.4byte	.LASF27
 761 0161 04       		.byte	0x4
 762 0162 20       		.byte	0x20
 763 0163 E9000000 		.4byte	0xe9
 764 0167 02       		.byte	0x2
 765 0168 23       		.byte	0x23
 766 0169 0C       		.uleb128 0xc
 767 016a 09       		.uleb128 0x9
 768 016b F7000000 		.4byte	.LASF28
 769 016f 04       		.byte	0x4
 770 0170 21       		.byte	0x21
 771 0171 D3000000 		.4byte	0xd3
 772 0175 02       		.byte	0x2
 773 0176 23       		.byte	0x23
 774 0177 0E       		.uleb128 0xe
 775 0178 09       		.uleb128 0x9
 776 0179 4D000000 		.4byte	.LASF29
 777 017d 04       		.byte	0x4
 778 017e 22       		.byte	0x22
 779 017f C8000000 		.4byte	0xc8
 780 0183 02       		.byte	0x2
 781 0184 23       		.byte	0x23
 782 0185 10       		.uleb128 0x10
 783 0186 09       		.uleb128 0x9
 784 0187 27000000 		.4byte	.LASF30
 785 018b 04       		.byte	0x4
 786 018c 29       		.byte	0x29
 787 018d B2000000 		.4byte	0xb2
 788 0191 02       		.byte	0x2
 789 0192 23       		.byte	0x23
 790 0193 14       		.uleb128 0x14
 791 0194 09       		.uleb128 0x9
 792 0195 62000000 		.4byte	.LASF31
 793 0199 04       		.byte	0x4
 794 019a 2A       		.byte	0x2a
 795 019b 68000000 		.4byte	0x68
 796 019f 02       		.byte	0x2
 797 01a0 23       		.byte	0x23
 798 01a1 18       		.uleb128 0x18
 799 01a2 09       		.uleb128 0x9
 800 01a3 00000000 		.4byte	.LASF32
 801 01a7 04       		.byte	0x4
 802 01a8 2B       		.byte	0x2b
 803 01a9 B2000000 		.4byte	0xb2
 804 01ad 02       		.byte	0x2
 805 01ae 23       		.byte	0x23
ARM GAS  D:\DOCUME~1\admin\LOCALS~1\Temp\cckKv2K2.s 			page 17


 806 01af 1C       		.uleb128 0x1c
 807 01b0 09       		.uleb128 0x9
 808 01b1 6C000000 		.4byte	.LASF33
 809 01b5 04       		.byte	0x4
 810 01b6 2C       		.byte	0x2c
 811 01b7 68000000 		.4byte	0x68
 812 01bb 02       		.byte	0x2
 813 01bc 23       		.byte	0x23
 814 01bd 20       		.uleb128 0x20
 815 01be 09       		.uleb128 0x9
 816 01bf FF000000 		.4byte	.LASF34
 817 01c3 04       		.byte	0x4
 818 01c4 2D       		.byte	0x2d
 819 01c5 B2000000 		.4byte	0xb2
 820 01c9 02       		.byte	0x2
 821 01ca 23       		.byte	0x23
 822 01cb 24       		.uleb128 0x24
 823 01cc 09       		.uleb128 0x9
 824 01cd 76000000 		.4byte	.LASF35
 825 01d1 04       		.byte	0x4
 826 01d2 2E       		.byte	0x2e
 827 01d3 68000000 		.4byte	0x68
 828 01d7 02       		.byte	0x2
 829 01d8 23       		.byte	0x23
 830 01d9 28       		.uleb128 0x28
 831 01da 09       		.uleb128 0x9
 832 01db F5010000 		.4byte	.LASF36
 833 01df 04       		.byte	0x4
 834 01e0 2F       		.byte	0x2f
 835 01e1 68000000 		.4byte	0x68
 836 01e5 02       		.byte	0x2
 837 01e6 23       		.byte	0x23
 838 01e7 2C       		.uleb128 0x2c
 839 01e8 09       		.uleb128 0x9
 840 01e9 AD000000 		.4byte	.LASF37
 841 01ed 04       		.byte	0x4
 842 01ee 30       		.byte	0x30
 843 01ef 68000000 		.4byte	0x68
 844 01f3 02       		.byte	0x2
 845 01f4 23       		.byte	0x23
 846 01f5 30       		.uleb128 0x30
 847 01f6 09       		.uleb128 0x9
 848 01f7 80000000 		.4byte	.LASF38
 849 01fb 04       		.byte	0x4
 850 01fc 31       		.byte	0x31
 851 01fd 05020000 		.4byte	0x205
 852 0201 02       		.byte	0x2
 853 0202 23       		.byte	0x23
 854 0203 34       		.uleb128 0x34
 855 0204 00       		.byte	0x0
 856 0205 0A       		.uleb128 0xa
 857 0206 68000000 		.4byte	0x68
 858 020a 15020000 		.4byte	0x215
 859 020e 0B       		.uleb128 0xb
 860 020f 90000000 		.4byte	0x90
 861 0213 01       		.byte	0x1
 862 0214 00       		.byte	0x0
ARM GAS  D:\DOCUME~1\admin\LOCALS~1\Temp\cckKv2K2.s 			page 18


 863 0215 0C       		.uleb128 0xc
 864 0216 01       		.byte	0x1
 865 0217 88010000 		.4byte	.LASF39
 866 021b 01       		.byte	0x1
 867 021c 22       		.byte	0x22
 868 021d 01       		.byte	0x1
 869 021e 41000000 		.4byte	0x41
 870 0222 00000000 		.4byte	.LFB4
 871 0226 06000000 		.4byte	.LFE4
 872 022a 01       		.byte	0x1
 873 022b 5D       		.byte	0x5d
 874 022c 59020000 		.4byte	0x259
 875 0230 0D       		.uleb128 0xd
 876 0231 666400   		.ascii	"fd\000"
 877 0234 01       		.byte	0x1
 878 0235 22       		.byte	0x22
 879 0236 41000000 		.4byte	0x41
 880 023a 00000000 		.4byte	.LLST1
 881 023e 0E       		.uleb128 0xe
 882 023f 70747200 		.ascii	"ptr\000"
 883 0243 01       		.byte	0x1
 884 0244 22       		.byte	0x22
 885 0245 41000000 		.4byte	0x41
 886 0249 01       		.byte	0x1
 887 024a 51       		.byte	0x51
 888 024b 0E       		.uleb128 0xe
 889 024c 64697200 		.ascii	"dir\000"
 890 0250 01       		.byte	0x1
 891 0251 22       		.byte	0x22
 892 0252 41000000 		.4byte	0x41
 893 0256 01       		.byte	0x1
 894 0257 52       		.byte	0x52
 895 0258 00       		.byte	0x0
 896 0259 0F       		.uleb128 0xf
 897 025a 01       		.byte	0x1
 898 025b 32010000 		.4byte	.LASF40
 899 025f 01       		.byte	0x1
 900 0260 2D       		.byte	0x2d
 901 0261 01       		.byte	0x1
 902 0262 41000000 		.4byte	0x41
 903 0266 08000000 		.4byte	.LFB6
 904 026a 12000000 		.4byte	.LFE6
 905 026e 13000000 		.4byte	.LLST2
 906 0272 95020000 		.4byte	0x295
 907 0276 10       		.uleb128 0x10
 908 0277 09020000 		.4byte	.LASF41
 909 027b 01       		.byte	0x1
 910 027c 2D       		.byte	0x2d
 911 027d A7000000 		.4byte	0xa7
 912 0281 32000000 		.4byte	.LLST3
 913 0285 11       		.uleb128 0x11
 914 0286 15010000 		.4byte	.LASF42
 915 028a 01       		.byte	0x1
 916 028b 2D       		.byte	0x2d
 917 028c 41000000 		.4byte	0x41
 918 0290 02       		.byte	0x2
 919 0291 91       		.byte	0x91
ARM GAS  D:\DOCUME~1\admin\LOCALS~1\Temp\cckKv2K2.s 			page 19


 920 0292 00       		.sleb128 0
 921 0293 12       		.uleb128 0x12
 922 0294 00       		.byte	0x0
 923 0295 0C       		.uleb128 0xc
 924 0296 01       		.byte	0x1
 925 0297 41000000 		.4byte	.LASF43
 926 029b 01       		.byte	0x1
 927 029c 31       		.byte	0x31
 928 029d 01       		.byte	0x1
 929 029e 41000000 		.4byte	0x41
 930 02a2 14000000 		.4byte	.LFB7
 931 02a6 1A000000 		.4byte	.LFE7
 932 02aa 01       		.byte	0x1
 933 02ab 5D       		.byte	0x5d
 934 02ac BF020000 		.4byte	0x2bf
 935 02b0 0D       		.uleb128 0xd
 936 02b1 666400   		.ascii	"fd\000"
 937 02b4 01       		.byte	0x1
 938 02b5 31       		.byte	0x31
 939 02b6 41000000 		.4byte	0x41
 940 02ba 45000000 		.4byte	.LLST5
 941 02be 00       		.byte	0x0
 942 02bf 0C       		.uleb128 0xc
 943 02c0 01       		.byte	0x1
 944 02c1 9E000000 		.4byte	.LASF44
 945 02c5 01       		.byte	0x1
 946 02c6 65       		.byte	0x65
 947 02c7 01       		.byte	0x1
 948 02c8 41000000 		.4byte	0x41
 949 02cc 1C000000 		.4byte	.LFB9
 950 02d0 22000000 		.4byte	.LFE9
 951 02d4 01       		.byte	0x1
 952 02d5 5D       		.byte	0x5d
 953 02d6 E9020000 		.4byte	0x2e9
 954 02da 0D       		.uleb128 0xd
 955 02db 666400   		.ascii	"fd\000"
 956 02de 01       		.byte	0x1
 957 02df 65       		.byte	0x65
 958 02e0 41000000 		.4byte	0x41
 959 02e4 58000000 		.4byte	.LLST7
 960 02e8 00       		.byte	0x0
 961 02e9 0F       		.uleb128 0xf
 962 02ea 01       		.byte	0x1
 963 02eb 7A010000 		.4byte	.LASF45
 964 02ef 01       		.byte	0x1
 965 02f0 55       		.byte	0x55
 966 02f1 01       		.byte	0x1
 967 02f2 41000000 		.4byte	0x41
 968 02f6 24000000 		.4byte	.LFB8
 969 02fa 42000000 		.4byte	.LFE8
 970 02fe 6B000000 		.4byte	.LLST8
 971 0302 23030000 		.4byte	0x323
 972 0306 0D       		.uleb128 0xd
 973 0307 666400   		.ascii	"fd\000"
 974 030a 01       		.byte	0x1
 975 030b 55       		.byte	0x55
 976 030c 41000000 		.4byte	0x41
ARM GAS  D:\DOCUME~1\admin\LOCALS~1\Temp\cckKv2K2.s 			page 20


 977 0310 8A000000 		.4byte	.LLST9
 978 0314 0D       		.uleb128 0xd
 979 0315 737400   		.ascii	"st\000"
 980 0318 01       		.byte	0x1
 981 0319 55       		.byte	0x55
 982 031a 23030000 		.4byte	0x323
 983 031e 9D000000 		.4byte	.LLST10
 984 0322 00       		.byte	0x0
 985 0323 06       		.uleb128 0x6
 986 0324 04       		.byte	0x4
 987 0325 0A010000 		.4byte	0x10a
 988 0329 0F       		.uleb128 0xf
 989 032a 01       		.byte	0x1
 990 032b 38010000 		.4byte	.LASF46
 991 032f 01       		.byte	0x1
 992 0330 26       		.byte	0x26
 993 0331 01       		.byte	0x1
 994 0332 41000000 		.4byte	0x41
 995 0336 44000000 		.4byte	.LFB5
 996 033a 66000000 		.4byte	.LFE5
 997 033e BB000000 		.4byte	.LLST11
 998 0342 80030000 		.4byte	0x380
 999 0346 0D       		.uleb128 0xd
 1000 0347 666400   		.ascii	"fd\000"
 1001 034a 01       		.byte	0x1
 1002 034b 26       		.byte	0x26
 1003 034c 41000000 		.4byte	0x41
 1004 0350 DA000000 		.4byte	.LLST12
 1005 0354 0D       		.uleb128 0xd
 1006 0355 70747200 		.ascii	"ptr\000"
 1007 0359 01       		.byte	0x1
 1008 035a 26       		.byte	0x26
 1009 035b 9A000000 		.4byte	0x9a
 1010 035f ED000000 		.4byte	.LLST13
 1011 0363 0D       		.uleb128 0xd
 1012 0364 6C656E00 		.ascii	"len\000"
 1013 0368 01       		.byte	0x1
 1014 0369 26       		.byte	0x26
 1015 036a 41000000 		.4byte	0x41
 1016 036e 0B010000 		.4byte	.LLST14
 1017 0372 13       		.uleb128 0x13
 1018 0373 6900     		.ascii	"i\000"
 1019 0375 01       		.byte	0x1
 1020 0376 27       		.byte	0x27
 1021 0377 41000000 		.4byte	0x41
 1022 037b 29010000 		.4byte	.LLST15
 1023 037f 00       		.byte	0x0
 1024 0380 0F       		.uleb128 0xf
 1025 0381 01       		.byte	0x1
 1026 0382 81010000 		.4byte	.LASF47
 1027 0386 01       		.byte	0x1
 1028 0387 10       		.byte	0x10
 1029 0388 01       		.byte	0x1
 1030 0389 41000000 		.4byte	0x41
 1031 038d 68000000 		.4byte	.LFB2
 1032 0391 80000000 		.4byte	.LFE2
 1033 0395 52010000 		.4byte	.LLST16
ARM GAS  D:\DOCUME~1\admin\LOCALS~1\Temp\cckKv2K2.s 			page 21


 1034 0399 AD030000 		.4byte	0x3ad
 1035 039d 11       		.uleb128 0x11
 1036 039e 48000000 		.4byte	.LASF48
 1037 03a2 01       		.byte	0x1
 1038 03a3 0F       		.byte	0xf
 1039 03a4 9A000000 		.4byte	0x9a
 1040 03a8 02       		.byte	0x2
 1041 03a9 91       		.byte	0x91
 1042 03aa 00       		.sleb128 0
 1043 03ab 12       		.uleb128 0x12
 1044 03ac 00       		.byte	0x0
 1045 03ad 14       		.uleb128 0x14
 1046 03ae 01       		.byte	0x1
 1047 03af 4C010000 		.4byte	.LASF53
 1048 03b3 01       		.byte	0x1
 1049 03b4 15       		.byte	0x15
 1050 03b5 01       		.byte	0x1
 1051 03b6 41000000 		.4byte	0x41
 1052 03ba 80000000 		.4byte	.LFB3
 1053 03be AE000000 		.4byte	.LFE3
 1054 03c2 7D010000 		.4byte	.LLST17
 1055 03c6 0D       		.uleb128 0xd
 1056 03c7 666400   		.ascii	"fd\000"
 1057 03ca 01       		.byte	0x1
 1058 03cb 15       		.byte	0x15
 1059 03cc 41000000 		.4byte	0x41
 1060 03d0 9C010000 		.4byte	.LLST18
 1061 03d4 0D       		.uleb128 0xd
 1062 03d5 70747200 		.ascii	"ptr\000"
 1063 03d9 01       		.byte	0x1
 1064 03da 15       		.byte	0x15
 1065 03db 9A000000 		.4byte	0x9a
 1066 03df BA010000 		.4byte	.LLST19
 1067 03e3 0D       		.uleb128 0xd
 1068 03e4 6C656E00 		.ascii	"len\000"
 1069 03e8 01       		.byte	0x1
 1070 03e9 15       		.byte	0x15
 1071 03ea 41000000 		.4byte	0x41
 1072 03ee D8010000 		.4byte	.LLST20
 1073 03f2 13       		.uleb128 0x13
 1074 03f3 6300     		.ascii	"c\000"
 1075 03f5 01       		.byte	0x1
 1076 03f6 16       		.byte	0x16
 1077 03f7 A0000000 		.4byte	0xa0
 1078 03fb F6010000 		.4byte	.LLST21
 1079 03ff 15       		.uleb128 0x15
 1080 0400 6900     		.ascii	"i\000"
 1081 0402 01       		.byte	0x1
 1082 0403 17       		.byte	0x17
 1083 0404 41000000 		.4byte	0x41
 1084 0408 01       		.byte	0x1
 1085 0409 54       		.byte	0x54
 1086 040a 00       		.byte	0x0
 1087 040b 00       		.byte	0x0
 1088              		.section	.debug_abbrev
 1089 0000 01       		.uleb128 0x1
 1090 0001 11       		.uleb128 0x11
ARM GAS  D:\DOCUME~1\admin\LOCALS~1\Temp\cckKv2K2.s 			page 22


 1091 0002 01       		.byte	0x1
 1092 0003 25       		.uleb128 0x25
 1093 0004 0E       		.uleb128 0xe
 1094 0005 13       		.uleb128 0x13
 1095 0006 0B       		.uleb128 0xb
 1096 0007 03       		.uleb128 0x3
 1097 0008 0E       		.uleb128 0xe
 1098 0009 1B       		.uleb128 0x1b
 1099 000a 0E       		.uleb128 0xe
 1100 000b 11       		.uleb128 0x11
 1101 000c 01       		.uleb128 0x1
 1102 000d 12       		.uleb128 0x12
 1103 000e 01       		.uleb128 0x1
 1104 000f 10       		.uleb128 0x10
 1105 0010 06       		.uleb128 0x6
 1106 0011 00       		.byte	0x0
 1107 0012 00       		.byte	0x0
 1108 0013 02       		.uleb128 0x2
 1109 0014 24       		.uleb128 0x24
 1110 0015 00       		.byte	0x0
 1111 0016 0B       		.uleb128 0xb
 1112 0017 0B       		.uleb128 0xb
 1113 0018 3E       		.uleb128 0x3e
 1114 0019 0B       		.uleb128 0xb
 1115 001a 03       		.uleb128 0x3
 1116 001b 0E       		.uleb128 0xe
 1117 001c 00       		.byte	0x0
 1118 001d 00       		.byte	0x0
 1119 001e 03       		.uleb128 0x3
 1120 001f 24       		.uleb128 0x24
 1121 0020 00       		.byte	0x0
 1122 0021 0B       		.uleb128 0xb
 1123 0022 0B       		.uleb128 0xb
 1124 0023 3E       		.uleb128 0x3e
 1125 0024 0B       		.uleb128 0xb
 1126 0025 03       		.uleb128 0x3
 1127 0026 08       		.uleb128 0x8
 1128 0027 00       		.byte	0x0
 1129 0028 00       		.byte	0x0
 1130 0029 04       		.uleb128 0x4
 1131 002a 16       		.uleb128 0x16
 1132 002b 00       		.byte	0x0
 1133 002c 03       		.uleb128 0x3
 1134 002d 0E       		.uleb128 0xe
 1135 002e 3A       		.uleb128 0x3a
 1136 002f 0B       		.uleb128 0xb
 1137 0030 3B       		.uleb128 0x3b
 1138 0031 0B       		.uleb128 0xb
 1139 0032 49       		.uleb128 0x49
 1140 0033 13       		.uleb128 0x13
 1141 0034 00       		.byte	0x0
 1142 0035 00       		.byte	0x0
 1143 0036 05       		.uleb128 0x5
 1144 0037 24       		.uleb128 0x24
 1145 0038 00       		.byte	0x0
 1146 0039 0B       		.uleb128 0xb
 1147 003a 0B       		.uleb128 0xb
ARM GAS  D:\DOCUME~1\admin\LOCALS~1\Temp\cckKv2K2.s 			page 23


 1148 003b 3E       		.uleb128 0x3e
 1149 003c 0B       		.uleb128 0xb
 1150 003d 00       		.byte	0x0
 1151 003e 00       		.byte	0x0
 1152 003f 06       		.uleb128 0x6
 1153 0040 0F       		.uleb128 0xf
 1154 0041 00       		.byte	0x0
 1155 0042 0B       		.uleb128 0xb
 1156 0043 0B       		.uleb128 0xb
 1157 0044 49       		.uleb128 0x49
 1158 0045 13       		.uleb128 0x13
 1159 0046 00       		.byte	0x0
 1160 0047 00       		.byte	0x0
 1161 0048 07       		.uleb128 0x7
 1162 0049 26       		.uleb128 0x26
 1163 004a 00       		.byte	0x0
 1164 004b 49       		.uleb128 0x49
 1165 004c 13       		.uleb128 0x13
 1166 004d 00       		.byte	0x0
 1167 004e 00       		.byte	0x0
 1168 004f 08       		.uleb128 0x8
 1169 0050 13       		.uleb128 0x13
 1170 0051 01       		.byte	0x1
 1171 0052 03       		.uleb128 0x3
 1172 0053 0E       		.uleb128 0xe
 1173 0054 0B       		.uleb128 0xb
 1174 0055 0B       		.uleb128 0xb
 1175 0056 3A       		.uleb128 0x3a
 1176 0057 0B       		.uleb128 0xb
 1177 0058 3B       		.uleb128 0x3b
 1178 0059 0B       		.uleb128 0xb
 1179 005a 01       		.uleb128 0x1
 1180 005b 13       		.uleb128 0x13
 1181 005c 00       		.byte	0x0
 1182 005d 00       		.byte	0x0
 1183 005e 09       		.uleb128 0x9
 1184 005f 0D       		.uleb128 0xd
 1185 0060 00       		.byte	0x0
 1186 0061 03       		.uleb128 0x3
 1187 0062 0E       		.uleb128 0xe
 1188 0063 3A       		.uleb128 0x3a
 1189 0064 0B       		.uleb128 0xb
 1190 0065 3B       		.uleb128 0x3b
 1191 0066 0B       		.uleb128 0xb
 1192 0067 49       		.uleb128 0x49
 1193 0068 13       		.uleb128 0x13
 1194 0069 38       		.uleb128 0x38
 1195 006a 0A       		.uleb128 0xa
 1196 006b 00       		.byte	0x0
 1197 006c 00       		.byte	0x0
 1198 006d 0A       		.uleb128 0xa
 1199 006e 01       		.uleb128 0x1
 1200 006f 01       		.byte	0x1
 1201 0070 49       		.uleb128 0x49
 1202 0071 13       		.uleb128 0x13
 1203 0072 01       		.uleb128 0x1
 1204 0073 13       		.uleb128 0x13
ARM GAS  D:\DOCUME~1\admin\LOCALS~1\Temp\cckKv2K2.s 			page 24


 1205 0074 00       		.byte	0x0
 1206 0075 00       		.byte	0x0
 1207 0076 0B       		.uleb128 0xb
 1208 0077 21       		.uleb128 0x21
 1209 0078 00       		.byte	0x0
 1210 0079 49       		.uleb128 0x49
 1211 007a 13       		.uleb128 0x13
 1212 007b 2F       		.uleb128 0x2f
 1213 007c 0B       		.uleb128 0xb
 1214 007d 00       		.byte	0x0
 1215 007e 00       		.byte	0x0
 1216 007f 0C       		.uleb128 0xc
 1217 0080 2E       		.uleb128 0x2e
 1218 0081 01       		.byte	0x1
 1219 0082 3F       		.uleb128 0x3f
 1220 0083 0C       		.uleb128 0xc
 1221 0084 03       		.uleb128 0x3
 1222 0085 0E       		.uleb128 0xe
 1223 0086 3A       		.uleb128 0x3a
 1224 0087 0B       		.uleb128 0xb
 1225 0088 3B       		.uleb128 0x3b
 1226 0089 0B       		.uleb128 0xb
 1227 008a 27       		.uleb128 0x27
 1228 008b 0C       		.uleb128 0xc
 1229 008c 49       		.uleb128 0x49
 1230 008d 13       		.uleb128 0x13
 1231 008e 11       		.uleb128 0x11
 1232 008f 01       		.uleb128 0x1
 1233 0090 12       		.uleb128 0x12
 1234 0091 01       		.uleb128 0x1
 1235 0092 40       		.uleb128 0x40
 1236 0093 0A       		.uleb128 0xa
 1237 0094 01       		.uleb128 0x1
 1238 0095 13       		.uleb128 0x13
 1239 0096 00       		.byte	0x0
 1240 0097 00       		.byte	0x0
 1241 0098 0D       		.uleb128 0xd
 1242 0099 05       		.uleb128 0x5
 1243 009a 00       		.byte	0x0
 1244 009b 03       		.uleb128 0x3
 1245 009c 08       		.uleb128 0x8
 1246 009d 3A       		.uleb128 0x3a
 1247 009e 0B       		.uleb128 0xb
 1248 009f 3B       		.uleb128 0x3b
 1249 00a0 0B       		.uleb128 0xb
 1250 00a1 49       		.uleb128 0x49
 1251 00a2 13       		.uleb128 0x13
 1252 00a3 02       		.uleb128 0x2
 1253 00a4 06       		.uleb128 0x6
 1254 00a5 00       		.byte	0x0
 1255 00a6 00       		.byte	0x0
 1256 00a7 0E       		.uleb128 0xe
 1257 00a8 05       		.uleb128 0x5
 1258 00a9 00       		.byte	0x0
 1259 00aa 03       		.uleb128 0x3
 1260 00ab 08       		.uleb128 0x8
 1261 00ac 3A       		.uleb128 0x3a
ARM GAS  D:\DOCUME~1\admin\LOCALS~1\Temp\cckKv2K2.s 			page 25


 1262 00ad 0B       		.uleb128 0xb
 1263 00ae 3B       		.uleb128 0x3b
 1264 00af 0B       		.uleb128 0xb
 1265 00b0 49       		.uleb128 0x49
 1266 00b1 13       		.uleb128 0x13
 1267 00b2 02       		.uleb128 0x2
 1268 00b3 0A       		.uleb128 0xa
 1269 00b4 00       		.byte	0x0
 1270 00b5 00       		.byte	0x0
 1271 00b6 0F       		.uleb128 0xf
 1272 00b7 2E       		.uleb128 0x2e
 1273 00b8 01       		.byte	0x1
 1274 00b9 3F       		.uleb128 0x3f
 1275 00ba 0C       		.uleb128 0xc
 1276 00bb 03       		.uleb128 0x3
 1277 00bc 0E       		.uleb128 0xe
 1278 00bd 3A       		.uleb128 0x3a
 1279 00be 0B       		.uleb128 0xb
 1280 00bf 3B       		.uleb128 0x3b
 1281 00c0 0B       		.uleb128 0xb
 1282 00c1 27       		.uleb128 0x27
 1283 00c2 0C       		.uleb128 0xc
 1284 00c3 49       		.uleb128 0x49
 1285 00c4 13       		.uleb128 0x13
 1286 00c5 11       		.uleb128 0x11
 1287 00c6 01       		.uleb128 0x1
 1288 00c7 12       		.uleb128 0x12
 1289 00c8 01       		.uleb128 0x1
 1290 00c9 40       		.uleb128 0x40
 1291 00ca 06       		.uleb128 0x6
 1292 00cb 01       		.uleb128 0x1
 1293 00cc 13       		.uleb128 0x13
 1294 00cd 00       		.byte	0x0
 1295 00ce 00       		.byte	0x0
 1296 00cf 10       		.uleb128 0x10
 1297 00d0 05       		.uleb128 0x5
 1298 00d1 00       		.byte	0x0
 1299 00d2 03       		.uleb128 0x3
 1300 00d3 0E       		.uleb128 0xe
 1301 00d4 3A       		.uleb128 0x3a
 1302 00d5 0B       		.uleb128 0xb
 1303 00d6 3B       		.uleb128 0x3b
 1304 00d7 0B       		.uleb128 0xb
 1305 00d8 49       		.uleb128 0x49
 1306 00d9 13       		.uleb128 0x13
 1307 00da 02       		.uleb128 0x2
 1308 00db 06       		.uleb128 0x6
 1309 00dc 00       		.byte	0x0
 1310 00dd 00       		.byte	0x0
 1311 00de 11       		.uleb128 0x11
 1312 00df 05       		.uleb128 0x5
 1313 00e0 00       		.byte	0x0
 1314 00e1 03       		.uleb128 0x3
 1315 00e2 0E       		.uleb128 0xe
 1316 00e3 3A       		.uleb128 0x3a
 1317 00e4 0B       		.uleb128 0xb
 1318 00e5 3B       		.uleb128 0x3b
ARM GAS  D:\DOCUME~1\admin\LOCALS~1\Temp\cckKv2K2.s 			page 26


 1319 00e6 0B       		.uleb128 0xb
 1320 00e7 49       		.uleb128 0x49
 1321 00e8 13       		.uleb128 0x13
 1322 00e9 02       		.uleb128 0x2
 1323 00ea 0A       		.uleb128 0xa
 1324 00eb 00       		.byte	0x0
 1325 00ec 00       		.byte	0x0
 1326 00ed 12       		.uleb128 0x12
 1327 00ee 18       		.uleb128 0x18
 1328 00ef 00       		.byte	0x0
 1329 00f0 00       		.byte	0x0
 1330 00f1 00       		.byte	0x0
 1331 00f2 13       		.uleb128 0x13
 1332 00f3 34       		.uleb128 0x34
 1333 00f4 00       		.byte	0x0
 1334 00f5 03       		.uleb128 0x3
 1335 00f6 08       		.uleb128 0x8
 1336 00f7 3A       		.uleb128 0x3a
 1337 00f8 0B       		.uleb128 0xb
 1338 00f9 3B       		.uleb128 0x3b
 1339 00fa 0B       		.uleb128 0xb
 1340 00fb 49       		.uleb128 0x49
 1341 00fc 13       		.uleb128 0x13
 1342 00fd 02       		.uleb128 0x2
 1343 00fe 06       		.uleb128 0x6
 1344 00ff 00       		.byte	0x0
 1345 0100 00       		.byte	0x0
 1346 0101 14       		.uleb128 0x14
 1347 0102 2E       		.uleb128 0x2e
 1348 0103 01       		.byte	0x1
 1349 0104 3F       		.uleb128 0x3f
 1350 0105 0C       		.uleb128 0xc
 1351 0106 03       		.uleb128 0x3
 1352 0107 0E       		.uleb128 0xe
 1353 0108 3A       		.uleb128 0x3a
 1354 0109 0B       		.uleb128 0xb
 1355 010a 3B       		.uleb128 0x3b
 1356 010b 0B       		.uleb128 0xb
 1357 010c 27       		.uleb128 0x27
 1358 010d 0C       		.uleb128 0xc
 1359 010e 49       		.uleb128 0x49
 1360 010f 13       		.uleb128 0x13
 1361 0110 11       		.uleb128 0x11
 1362 0111 01       		.uleb128 0x1
 1363 0112 12       		.uleb128 0x12
 1364 0113 01       		.uleb128 0x1
 1365 0114 40       		.uleb128 0x40
 1366 0115 06       		.uleb128 0x6
 1367 0116 00       		.byte	0x0
 1368 0117 00       		.byte	0x0
 1369 0118 15       		.uleb128 0x15
 1370 0119 34       		.uleb128 0x34
 1371 011a 00       		.byte	0x0
 1372 011b 03       		.uleb128 0x3
 1373 011c 08       		.uleb128 0x8
 1374 011d 3A       		.uleb128 0x3a
 1375 011e 0B       		.uleb128 0xb
ARM GAS  D:\DOCUME~1\admin\LOCALS~1\Temp\cckKv2K2.s 			page 27


 1376 011f 3B       		.uleb128 0x3b
 1377 0120 0B       		.uleb128 0xb
 1378 0121 49       		.uleb128 0x49
 1379 0122 13       		.uleb128 0x13
 1380 0123 02       		.uleb128 0x2
 1381 0124 0A       		.uleb128 0xa
 1382 0125 00       		.byte	0x0
 1383 0126 00       		.byte	0x0
 1384 0127 00       		.byte	0x0
 1385              		.section	.debug_pubnames,"",%progbits
 1386 0000 64000000 		.4byte	0x64
 1387 0004 0200     		.2byte	0x2
 1388 0006 00000000 		.4byte	.Ldebug_info0
 1389 000a 0C040000 		.4byte	0x40c
 1390 000e 15020000 		.4byte	0x215
 1391 0012 5F6C7365 		.ascii	"_lseek\000"
 1391      656B00
 1392 0019 59020000 		.4byte	0x259
 1393 001d 5F6F7065 		.ascii	"_open\000"
 1393      6E00
 1394 0023 95020000 		.4byte	0x295
 1395 0027 5F636C6F 		.ascii	"_close\000"
 1395      736500
 1396 002e BF020000 		.4byte	0x2bf
 1397 0032 69736174 		.ascii	"isatty\000"
 1397      747900
 1398 0039 E9020000 		.4byte	0x2e9
 1399 003d 5F667374 		.ascii	"_fstat\000"
 1399      617400
 1400 0044 29030000 		.4byte	0x329
 1401 0048 5F777269 		.ascii	"_write\000"
 1401      746500
 1402 004f 80030000 		.4byte	0x380
 1403 0053 7072696E 		.ascii	"printf\000"
 1403      746600
 1404 005a AD030000 		.4byte	0x3ad
 1405 005e 5F726561 		.ascii	"_read\000"
 1405      6400
 1406 0064 00000000 		.4byte	0x0
 1407              		.section	.debug_aranges,"",%progbits
 1408 0000 1C000000 		.4byte	0x1c
 1409 0004 0200     		.2byte	0x2
 1410 0006 00000000 		.4byte	.Ldebug_info0
 1411 000a 04       		.byte	0x4
 1412 000b 00       		.byte	0x0
 1413 000c 0000     		.2byte	0x0
 1414 000e 0000     		.2byte	0x0
 1415 0010 00000000 		.4byte	.Ltext0
 1416 0014 AE000000 		.4byte	.Letext0-.Ltext0
 1417 0018 00000000 		.4byte	0x0
 1418 001c 00000000 		.4byte	0x0
 1419              		.section	.debug_str,"MS",%progbits,1
 1420              	.LASF32:
 1421 0000 73745F6D 		.ascii	"st_mtime\000"
 1421      74696D65 
 1421      00
 1422              	.LASF19:
ARM GAS  D:\DOCUME~1\admin\LOCALS~1\Temp\cckKv2K2.s 			page 28


 1423 0009 6769645F 		.ascii	"gid_t\000"
 1423      7400
 1424              	.LASF16:
 1425 000f 6F66665F 		.ascii	"off_t\000"
 1425      7400
 1426              	.LASF13:
 1427 0015 63686172 		.ascii	"char\000"
 1427      00
 1428              	.LASF52:
 1429 001a 73746174 		.ascii	"stat\000"
 1429      00
 1430              	.LASF21:
 1431 001f 6E6C696E 		.ascii	"nlink_t\000"
 1431      6B5F7400 
 1432              	.LASF30:
 1433 0027 73745F61 		.ascii	"st_atime\000"
 1433      74696D65 
 1433      00
 1434              	.LASF10:
 1435 0030 5F5F7569 		.ascii	"__uid_t\000"
 1435      645F7400 
 1436              	.LASF25:
 1437 0038 73745F6E 		.ascii	"st_nlink\000"
 1437      6C696E6B 
 1437      00
 1438              	.LASF43:
 1439 0041 5F636C6F 		.ascii	"_close\000"
 1439      736500
 1440              	.LASF48:
 1441 0048 74657874 		.ascii	"text\000"
 1441      00
 1442              	.LASF29:
 1443 004d 73745F73 		.ascii	"st_size\000"
 1443      697A6500 
 1444              	.LASF15:
 1445 0055 696E6F5F 		.ascii	"ino_t\000"
 1445      7400
 1446              	.LASF23:
 1447 005b 73745F69 		.ascii	"st_ino\000"
 1447      6E6F00
 1448              	.LASF31:
 1449 0062 73745F73 		.ascii	"st_spare1\000"
 1449      70617265 
 1449      3100
 1450              	.LASF33:
 1451 006c 73745F73 		.ascii	"st_spare2\000"
 1451      70617265 
 1451      3200
 1452              	.LASF35:
 1453 0076 73745F73 		.ascii	"st_spare3\000"
 1453      70617265 
 1453      3300
 1454              	.LASF38:
 1455 0080 73745F73 		.ascii	"st_spare4\000"
 1455      70617265 
 1455      3400
 1456              	.LASF18:
ARM GAS  D:\DOCUME~1\admin\LOCALS~1\Temp\cckKv2K2.s 			page 29


 1457 008a 7569645F 		.ascii	"uid_t\000"
 1457      7400
 1458              	.LASF1:
 1459 0090 756E7369 		.ascii	"unsigned char\000"
 1459      676E6564 
 1459      20636861 
 1459      7200
 1460              	.LASF44:
 1461 009e 69736174 		.ascii	"isatty\000"
 1461      747900
 1462              	.LASF9:
 1463 00a5 5F5F6465 		.ascii	"__dev_t\000"
 1463      765F7400 
 1464              	.LASF37:
 1465 00ad 73745F62 		.ascii	"st_blocks\000"
 1465      6C6F636B 
 1465      7300
 1466              	.LASF12:
 1467 00b7 6C6F6E67 		.ascii	"long unsigned int\000"
 1467      20756E73 
 1467      69676E65 
 1467      6420696E 
 1467      7400
 1468              	.LASF24:
 1469 00c9 73745F6D 		.ascii	"st_mode\000"
 1469      6F646500 
 1470              	.LASF3:
 1471 00d1 73686F72 		.ascii	"short unsigned int\000"
 1471      7420756E 
 1471      7369676E 
 1471      65642069 
 1471      6E7400
 1472              	.LASF49:
 1473 00e4 474E5520 		.ascii	"GNU C 4.3.3\000"
 1473      4320342E 
 1473      332E3300 
 1474              	.LASF8:
 1475 00f0 5F6F6666 		.ascii	"_off_t\000"
 1475      5F7400
 1476              	.LASF28:
 1477 00f7 73745F72 		.ascii	"st_rdev\000"
 1477      64657600 
 1478              	.LASF34:
 1479 00ff 73745F63 		.ascii	"st_ctime\000"
 1479      74696D65 
 1479      00
 1480              	.LASF4:
 1481 0108 756E7369 		.ascii	"unsigned int\000"
 1481      676E6564 
 1481      20696E74 
 1481      00
 1482              	.LASF42:
 1483 0115 666C6167 		.ascii	"flags\000"
 1483      7300
 1484              	.LASF6:
 1485 011b 6C6F6E67 		.ascii	"long long unsigned int\000"
 1485      206C6F6E 
ARM GAS  D:\DOCUME~1\admin\LOCALS~1\Temp\cckKv2K2.s 			page 30


 1485      6720756E 
 1485      7369676E 
 1485      65642069 
 1486              	.LASF40:
 1487 0132 5F6F7065 		.ascii	"_open\000"
 1487      6E00
 1488              	.LASF46:
 1489 0138 5F777269 		.ascii	"_write\000"
 1489      746500
 1490              	.LASF14:
 1491 013f 74696D65 		.ascii	"time_t\000"
 1491      5F7400
 1492              	.LASF17:
 1493 0146 6465765F 		.ascii	"dev_t\000"
 1493      7400
 1494              	.LASF53:
 1495 014c 5F726561 		.ascii	"_read\000"
 1495      6400
 1496              	.LASF26:
 1497 0152 73745F75 		.ascii	"st_uid\000"
 1497      696400
 1498              	.LASF11:
 1499 0159 5F5F6769 		.ascii	"__gid_t\000"
 1499      645F7400 
 1500              	.LASF50:
 1501 0161 53797363 		.ascii	"Syscalls.c\000"
 1501      616C6C73 
 1501      2E6300
 1502              	.LASF5:
 1503 016c 6C6F6E67 		.ascii	"long long int\000"
 1503      206C6F6E 
 1503      6720696E 
 1503      7400
 1504              	.LASF45:
 1505 017a 5F667374 		.ascii	"_fstat\000"
 1505      617400
 1506              	.LASF47:
 1507 0181 7072696E 		.ascii	"printf\000"
 1507      746600
 1508              	.LASF39:
 1509 0188 5F6C7365 		.ascii	"_lseek\000"
 1509      656B00
 1510              	.LASF2:
 1511 018f 73686F72 		.ascii	"short int\000"
 1511      7420696E 
 1511      7400
 1512              	.LASF51:
 1513 0199 4A3A5C61 		.ascii	"J:\\acco\\zipzap\\cortex_dev\\projets\\ap note 199\\"
 1513      63636F5C 
 1513      7A69707A 
 1513      61705C63 
 1513      6F727465 
 1514 01c7 41504E31 		.ascii	"APN199_Examples\\MCBSTM32_Blinky\000"
 1514      39395F45 
 1514      78616D70 
 1514      6C65735C 
 1514      4D434253 
ARM GAS  D:\DOCUME~1\admin\LOCALS~1\Temp\cckKv2K2.s 			page 31


 1515              	.LASF22:
 1516 01e7 73745F64 		.ascii	"st_dev\000"
 1516      657600
 1517              	.LASF27:
 1518 01ee 73745F67 		.ascii	"st_gid\000"
 1518      696400
 1519              	.LASF36:
 1520 01f5 73745F62 		.ascii	"st_blksize\000"
 1520      6C6B7369 
 1520      7A6500
 1521              	.LASF7:
 1522 0200 6C6F6E67 		.ascii	"long int\000"
 1522      20696E74 
 1522      00
 1523              	.LASF41:
 1524 0209 70617468 		.ascii	"path\000"
 1524      00
 1525              	.LASF0:
 1526 020e 7369676E 		.ascii	"signed char\000"
 1526      65642063 
 1526      68617200 
 1527              	.LASF20:
 1528 021a 6D6F6465 		.ascii	"mode_t\000"
 1528      5F7400
 1529              		.ident	"GCC: (Sourcery G++ Lite 2009q1-161) 4.3.3"
ARM GAS  D:\DOCUME~1\admin\LOCALS~1\Temp\cckKv2K2.s 			page 32


DEFINED SYMBOLS
                            *ABS*:00000000 Syscalls.c
D:\DOCUME~1\admin\LOCALS~1\Temp\cckKv2K2.s:22     .text:00000000 $t
D:\DOCUME~1\admin\LOCALS~1\Temp\cckKv2K2.s:27     .text:00000000 _lseek
D:\DOCUME~1\admin\LOCALS~1\Temp\cckKv2K2.s:46     .text:00000008 _open
D:\DOCUME~1\admin\LOCALS~1\Temp\cckKv2K2.s:67     .text:00000014 _close
D:\DOCUME~1\admin\LOCALS~1\Temp\cckKv2K2.s:85     .text:0000001c isatty
D:\DOCUME~1\admin\LOCALS~1\Temp\cckKv2K2.s:103    .text:00000024 _fstat
D:\DOCUME~1\admin\LOCALS~1\Temp\cckKv2K2.s:132    .text:00000044 _write
D:\DOCUME~1\admin\LOCALS~1\Temp\cckKv2K2.s:169    .text:00000068 printf
D:\DOCUME~1\admin\LOCALS~1\Temp\cckKv2K2.s:195    .text:00000080 _read
D:\DOCUME~1\admin\LOCALS~1\Temp\cckKv2K2.s:240    .debug_frame:00000000 $d
D:\DOCUME~1\admin\LOCALS~1\Temp\cckKv2K2.s:384    .debug_loc:00000000 $d
D:\DOCUME~1\admin\LOCALS~1\Temp\cckKv2K2.s:381    .text:000000ae $t

UNDEFINED SYMBOLS
memset
ser_putchar
ser_getchar
