L166 LINKER/LOCATER V5.22                                                               06/28/2009  16:38:42  PAGE 1


L166 LINKER/LOCATER V5.22, INVOKED BY:
C:\KEIL\EVALSOFT\C166\BIN\L166.EXE .\objs\START167.obj, .\objs\driveurs_2008a.obj, .\objs\lib_autom_2008a.obj, .\objs\mo
>> n_stdio_2007b.obj, .\objs\tpl_os_task.obj, .\objs\tpl_os.obj, .\objs\tpl_os_action.obj, .\objs\tpl_os_alarm.obj, .\ob
>> js\tpl_os_alarm_kernel.obj, .\objs\tpl_os_error.obj, .\objs\tpl_os_event.obj, .\objs\tpl_os_it.obj, .\objs\tpl_os_it_
>> kernel.obj, .\objs\tpl_os_kernel.obj, .\objs\tpl_os_rez.obj, .\objs\tpl_os_rez_kernel.obj, .\objs\tpl_machine_c166.ob
>> j, .\objs\tpl_os_generated_configuration.obj, .\objs\code_appli.obj TO .\objs\test_diodes PRINT (.\test_diodes.m66) C
>> LASSES (ICODE (0X0-0X4FFF), NCODE (0X0-0X4FFF), NCONST (0X0-0X4FFF), NDATA (0X5000-0X9FFF), NDATA0 (0X5000-0X9FFF), S
>> DATA (0XC000-0XD7FF, 0XE000-0XE7FF, 0XF200-0XFDFF), SDATA0 (0XC000-0XD7FF, 0XE000-0XE7FF, 0XF200-0XFDFF), IDATA (0XF2
>> 00-0XFDFF), IDATA0 (0XF200-0XFDFF)) CINITTAB (0X0-0X4FFF)


CPU TYPE:     C167 or derivative
CPU MODE:     NONSEGMENTED
MEMORY MODEL: TINY WITH FLOATING POINT ARITHMETIC


INPUT MODULES INCLUDED:
  .\objs\START167.obj (?C_STARTUP)
         COMMENT TYPE 128: A166 V5.30
  .\objs\driveurs_2008a.obj (DRIVEURS_2008A)
         COMMENT TYPE 128: C166 V6.08
  .\objs\lib_autom_2008a.obj (LIB_AUTOM_2008A)
         COMMENT TYPE 128: C166 V6.08
  .\objs\mon_stdio_2007b.obj (MON_STDIO_2007B)
         COMMENT TYPE 128: C166 V6.08
  .\objs\tpl_os_task.obj (TPL_OS_TASK)
         COMMENT TYPE 128: C166 V6.08
  .\objs\tpl_os.obj (TPL_OS)
         COMMENT TYPE 128: C166 V6.08
  .\objs\tpl_os_action.obj (TPL_OS_ACTION)
         COMMENT TYPE 128: C166 V6.08
  .\objs\tpl_os_alarm.obj (TPL_OS_ALARM)
         COMMENT TYPE 128: C166 V6.08
  .\objs\tpl_os_alarm_kernel.obj (TPL_OS_ALARM_KERNEL)
         COMMENT TYPE 128: C166 V6.08
  .\objs\tpl_os_error.obj (TPL_OS_ERROR)
         COMMENT TYPE 128: C166 V6.08
  .\objs\tpl_os_event.obj (TPL_OS_EVENT)
         COMMENT TYPE 128: C166 V6.08
  .\objs\tpl_os_it.obj (TPL_OS_IT)
         COMMENT TYPE 128: C166 V6.08
  .\objs\tpl_os_it_kernel.obj (TPL_OS_IT_KERNEL)
         COMMENT TYPE 128: C166 V6.08
  .\objs\tpl_os_kernel.obj (TPL_OS_KERNEL)
         COMMENT TYPE 128: C166 V6.08
  .\objs\tpl_os_rez.obj (TPL_OS_REZ)
         COMMENT TYPE 128: C166 V6.08
  .\objs\tpl_os_rez_kernel.obj (TPL_OS_REZ_KERNEL)
         COMMENT TYPE 128: C166 V6.08
  .\objs\tpl_machine_c166.obj (TPL_MACHINE_C166)
         COMMENT TYPE 128: C166 V6.08
  .\objs\tpl_os_generated_configuration.obj (TPL_OS_GENERATED_CONFIGURATION)
         COMMENT TYPE 128: C166 V6.08
  .\objs\code_appli.obj (CODE_APPLI)
         COMMENT TYPE 128: C166 V6.08
  C:\KEIL\EVALSOFT\C166\LIB\C167FPT.LIB (?C_FPADD)
         COMMENT TYPE 128: A166 V5.30
  C:\KEIL\EVALSOFT\C166\LIB\C167FPT.LIB (?C_FPMUL)
L166 LINKER/LOCATER V5.22                                                             06/28/2009  16:38:42  PAGE 2


         COMMENT TYPE 128: A166 V5.30
  C:\KEIL\EVALSOFT\C166\LIB\C167FPT.LIB (?C_FPDIV)
         COMMENT TYPE 128: A166 V5.30
  C:\KEIL\EVALSOFT\C166\LIB\C167FPT.LIB (?C_CASTF)
         COMMENT TYPE 128: A166 V5.30
  C:\KEIL\EVALSOFT\C166\LIB\C167FPT.LIB (?C_FCAST)
         COMMENT TYPE 128: A166 V5.30
  C:\KEIL\EVALSOFT\C166\LIB\C167FPT.LIB (?C_FPCMP)
         COMMENT TYPE 128: A166 V5.30
  C:\KEIL\EVALSOFT\C166\LIB\C167FPT.LIB (?C_FPGETOPN)
         COMMENT TYPE 128: A166 V5.30
  C:\KEIL\EVALSOFT\C166\LIB\C167FPT.LIB (?C_FPEQUATES)
         COMMENT TYPE 128: A166 V5.30
  C:\KEIL\EVALSOFT\C166\LIB\C167T.LIB (?C_ENDINIT)
         COMMENT TYPE 128: A166 V5.30


INTERRUPT PROCEDURES OF MODULE:  .\objs\test_diodes (?C_STARTUP)


INTERRUPT PROCEDURE                 INT  INTERRUPT NAME
=======================================================
?C_RESET                              0  RESET
tpl_timer6_tick                      38  ---  


MEMORY MAP OF MODULE:  .\objs\test_diodes (?C_STARTUP)


START     STOP      LENGTH    TYPE  RTYP  ALIGN  TGR  GRP  COMB  CLASS   SECTION NAME
=====================================================================================
000000H   000003H   000004H   ---   ---   ---    ---  ---  ---   * INTVECTOR TABLE *
000004H   000029H   000026H   CONST ABS   WORD   ---  ---  PRIV  ---     ?C_CLRMEMSEC
00002AH   000093H   00006AH   CODE  REL   WORD   ---  ---  PUBL  NCODE   ?PR?CODE_APPLI
000094H   000097H   000004H   CODE  REL   WORD   ---  ---  PUBL  NCODE   ?PR?TPL_OS_IT
000098H   00009BH   000004H   ---   ---   ---    ---  ---  ---   * INTVECTOR TABLE *
00009CH   0001DBH   000140H   XDATA REL   WORD   ---  ---  GLOB  ---     ?C_INITSEC
0001DCH   000287H   0000ACH   CODE  REL   WORD   ---  ---  PRIV  ICODE   ?C_STARTUP_CODE
000288H   000691H   00040AH   CODE  REL   WORD   ---  ---  PUBL  NCODE   ?PR?TPL_OS_KERNEL
000692H   000A5DH   0003CCH   CODE  REL   WORD   ---  ---  PUBL  NCODE   ?C_LIB_CODE
000A5EH   000CDFH   000282H   CODE  REL   WORD   ---  ---  PUBL  NCODE   ?PR?TPL_OS_ALARM_KERNEL
000CE0H   000F4DH   00026EH   CODE  REL   WORD   ---  ---  PUBL  NCODE   ?PR?TPL_MACHINE_C166
000F4EH   00116DH   000220H   CODE  REL   WORD   ---  ---  PUBL  NCODE   ?PR?LIB_AUTOM_2008A
00116EH   0012CBH   00015EH   CODE  REL   WORD   ---  ---  PUBL  NCODE   ?PR?TPL_OS_ALARM
0012CCH   0013F5H   00012AH   CODE  REL   WORD   ---  ---  PUBL  NCODE   ?PR?TPL_OS_TASK
0013F6H   00151DH   000128H   CODE  REL   WORD   ---  ---  PUBL  NCODE   ?PR?DRIVEURS_2008A
00151EH   0015CBH   0000AEH   CODE  REL   WORD   ---  ---  PUBL  NCODE   ?PR?TPL_OS_EVENT
0015CCH   001631H   000066H   CODE  REL   WORD   ---  ---  PUBL  NCODE   ?PR?TPL_OS_REZ_KERNEL
001632H   001689H   000058H   CODE  REL   WORD   ---  ---  PUBL  NCODE   ?PR?TPL_OS_REZ
00168AH   0016DBH   000052H   CODE  REL   WORD   ---  ---  PUBL  NCODE   ?PR?TPL_OS_GENERATED_CONFIGURATION
0016DCH   001717H   00003CH   CODE  REL   WORD   ---  ---  PUBL  NCODE   ?PR?TPL_OS
001718H   00173BH   000024H   CODE  REL   WORD   ---  ---  PUBL  NCODE   ?PR?TPL_OS_ACTION
00173CH   00175DH   000022H   CODE  REL   WORD   ---  ---  PUBL  NCODE   ?PR?MON_STDIO_2007B
005000H   0051FFH   000200H   DATA  REL   WORD   ---  ---  PUBL  NDATA   ?C_USERSTACK
005200H   0054E5H   0002E6H   DATA  REL   WORD   ---  ---  PUBL  NDATA0  ?ND0?TPL_OS_GENERATED_CONFIGURATION
0054E6H   005512H   00002DH   DATA  REL   WORD   ---  ---  PUBL  NDATA0  ?ND0?TPL_OS_KERNEL
005513H   005513H   000001H   DATA  REL   BYTE   ---  ---  PUBL  NDATA0  ?ND0?TPL_OS
L166 LINKER/LOCATER V5.22                                                             06/28/2009  16:38:42  PAGE 3


005514H   005531H   00001EH   DATA  REL   WORD   ---  ---  PUBL  NDATA0  ?ND0?TPL_MACHINE_C166
005532H   005547H   000016H   DATA  REL   WORD   ---  ---  PUBL  NDATA0  ?ND0?LIB_AUTOM_2008A
005548H   00554BH   000004H   DATA  REL   WORD   ---  ---  PUBL  NDATA0  ?ND0?DRIVEURS_2008A
00554CH   00554FH   000004H   DATA  REL   WORD   ---  ---  PUBL  NDATA0  ?ND0?CODE_APPLI
00F200H   00F3FFH   000200H   DATA  REL   WORD   ---  ---  PUBL  IDATA0  ?ID0?TPL_OS_GENERATED_CONFIGURATION
00F400H   00F47FH   000080H   DATA  REL   WORD   ---  ---  PUBL  IDATA0  ?ID0?TPL_MACHINE_C166
00FA00H   00FBFFH   000200H   ---   ---   ---    ---  ---  ---   * SYSTEM STACK *
00FC00H   00FC1FH   000020H   DATA  ---   BYTE   ---  ---  ---   *REG*   ?C_MAINREGISTERS



PUBLIC SYMBOLS OF MODULE:  .\objs\test_diodes (?C_STARTUP)


      VALUE       PUBLIC SYMBOL NAME               REP   TGR  CLASS   SECTION
      =======================================================================
      0008D6H     ?C_CASTF                         LABEL ---  NCODE   ?C_LIB_CODE
      000004H     ?C_CLRMEMSECSTART                VAR   ---  ---     ---
      000033H     ?C_DPPRECISION                   CONST ---  ---     ---
      0001DAH     ?C_ENDINIT                       VAR   ---  ---     ?C_INITSEC
      000932H     ?C_FCAST                         LABEL ---  NCODE   ?C_LIB_CODE
      000696H     ?C_FPADD                         LABEL ---  NCODE   ?C_LIB_CODE
      000978H     ?C_FPCMP                         LABEL ---  NCODE   ?C_LIB_CODE
      00080EH     ?C_FPDIV                         LABEL ---  NCODE   ?C_LIB_CODE
      0009FAH     ?C_FPGETOPN                      LABEL ---  NCODE   ?C_LIB_CODE
      000A28H     ?C_FPINFRSL                      LABEL ---  NCODE   ?C_LIB_CODE
      00077AH     ?C_FPMUL                         LABEL ---  NCODE   ?C_LIB_CODE
      000A20H     ?C_FPNANRSL                      LABEL ---  NCODE   ?C_LIB_CODE
      000A4AH     ?C_FPNOERR                       LABEL ---  NCODE   ?C_LIB_CODE
      000A34H     ?C_FPOPRSL                       LABEL ---  NCODE   ?C_LIB_CODE
      000015H     ?C_FPPRECISION                   CONST ---  ---     ---
      000A40H     ?C_FPRSLNR                       LABEL ---  NCODE   ?C_LIB_CODE
      000692H     ?C_FPSUB                         LABEL ---  NCODE   ?C_LIB_CODE
      000A58H     ?C_FPUNFRS                       LABEL ---  NCODE   ?C_LIB_CODE
      0006D4H     ?C_FPXSUB                        LABEL ---  NCODE   ?C_LIB_CODE
      000A58H     ?C_FPZERRSL                      LABEL ---  NCODE   ?C_LIB_CODE
      00009CH     ?C_INITSECSTART                  VAR   ---  ---     ---
000000001FFFC000H ?C_NCONSTBASE                    CONST ---  ---     ---
000000001FFFFFFFH ?C_NCONSTBASESEG                 CONST ---  ---     ---
000000001FFFC000H ?C_NDATABASE                     CONST ---  ---     ---
000000001FFFFFFFH ?C_NDATABASESEG                  CONST ---  ---     ---
      000000H     ?C_PAGEDPP0                      CONST ---  ---     ---
      000000H     ?C_PAGEDPP1                      CONST ---  ---     ---
      000001H     ?C_PAGEDPP2                      CONST ---  ---     ---
      0001DCH     ?C_STARTUP                       LABEL ---  ICODE   ?C_STARTUP_CODE
      00FA00H     ?C_SYSSTKBOT                     CONST ---  ---     ---
      00FC00H     ?C_SYSSTKTOP                     CONST ---  ---     ---
      005000H     ?C_USRSTKBOT                     VAR   ---  NDATA   ?C_USERSTACK
      0012CCH     ActivateTask                     LABEL ---  NCODE   ?PR?TPL_OS_TASK
      000F6CH     Calculer_Etat_Relatif            LABEL ---  NCODE   ?PR?LIB_AUTOM_2008A
      00129AH     CancelAlarm                      LABEL ---  NCODE   ?PR?TPL_OS_ALARM
      00131EH     ChainTask                        LABEL ---  NCODE   ?PR?TPL_OS_TASK
      00155EH     ClearEvent                       LABEL ---  NCODE   ?PR?TPL_OS_EVENT
      00106AH     Compteur_Trajectoire             LABEL ---  NCODE   ?PR?LIB_AUTOM_2008A
      00140EH     Config_ADConverter               LABEL ---  NCODE   ?PR?DRIVEURS_2008A
      00145CH     Config_Capture                   LABEL ---  NCODE   ?PR?DRIVEURS_2008A
      001480H     Config_PWM                       LABEL ---  NCODE   ?PR?DRIVEURS_2008A
L166 LINKER/LOCATER V5.22                                                             06/28/2009  16:38:42  PAGE 4


      0013F6H     Configurer_Tout_Les_Periphs      LABEL ---  NCODE   ?PR?DRIVEURS_2008A
      005536H     E                                VAR   ---  NDATA0  ?ND0?LIB_AUTOM_2008A
      0014ACH     Fixe_Rapport                     LABEL ---  NCODE   ?PR?DRIVEURS_2008A
      0016DCH     GetActiveApplicationMode         LABEL ---  NCODE   ?PR?TPL_OS
      0011B2H     GetAlarm                         LABEL ---  NCODE   ?PR?TPL_OS_ALARM
      00116EH     GetAlarmBase                     LABEL ---  NCODE   ?PR?TPL_OS_ALARM
      001582H     GetEvent                         LABEL ---  NCODE   ?PR?TPL_OS_EVENT
      001632H     GetResource                      LABEL ---  NCODE   ?PR?TPL_OS_REZ
      0013D2H     GetTaskID                        LABEL ---  NCODE   ?PR?TPL_OS_TASK
      0013E2H     GetTaskState                     LABEL ---  NCODE   ?PR?TPL_OS_TASK
      0054F8H     INTERNAL_RES_SCHEDULER           VAR   ---  NDATA0  ?ND0?TPL_OS_KERNEL
      00002AH     InitApp                          LABEL ---  NCODE   ?PR?CODE_APPLI
      0014E2H     Init_Led                         LABEL ---  NCODE   ?PR?DRIVEURS_2008A
      00173CH     Init_Mon_Stdio                   LABEL ---  NCODE   ?PR?MON_STDIO_2007B
      001476H     Init_Position                    LABEL ---  NCODE   ?PR?DRIVEURS_2008A
      00102CH     Init_Trajectoire                 LABEL ---  NCODE   ?PR?LIB_AUTOM_2008A
      0010AEH     Iterer_Trajectoire               LABEL ---  NCODE   ?PR?LIB_AUTOM_2008A
      001070H     Lire_Consigne                    LABEL ---  NCODE   ?PR?LIB_AUTOM_2008A
      000F4EH     Lire_Etat_Absolu                 LABEL ---  NCODE   ?PR?LIB_AUTOM_2008A
      00146CH     Lire_Position                    LABEL ---  NCODE   ?PR?DRIVEURS_2008A
      001448H     Lire_Vitesse                     LABEL ---  NCODE   ?PR?DRIVEURS_2008A
      00141CH     Lire_Vitesse_Float               LABEL ---  NCODE   ?PR?DRIVEURS_2008A
      0014F2H     Modifier_Led_1                   LABEL ---  NCODE   ?PR?DRIVEURS_2008A
      0014F8H     Modifier_Led_2                   LABEL ---  NCODE   ?PR?DRIVEURS_2008A
      00554AH     N_Pulse                          VAR   ---  NDATA0  ?ND0?DRIVEURS_2008A
      005548H     Position                         VAR   ---  NDATA0  ?ND0?DRIVEURS_2008A
      000000H     RESET                            INTNO ---  ---     ---
      005510H     RES_SCHEDULER                    VAR   ---  NDATA0  ?ND0?TPL_OS_KERNEL
      001010H     Reinit_Etat                      LABEL ---  NCODE   ?PR?LIB_AUTOM_2008A
      00165EH     ReleaseResource                  LABEL ---  NCODE   ?PR?TPL_OS_REZ
      001512H     Reset_Led                        LABEL ---  NCODE   ?PR?DRIVEURS_2008A
      0013AAH     Schedule                         LABEL ---  NCODE   ?PR?TPL_OS_TASK
      00125EH     SetAbsAlarm                      LABEL ---  NCODE   ?PR?TPL_OS_ALARM
      00151EH     SetEvent                         LABEL ---  NCODE   ?PR?TPL_OS_EVENT
      0011EEH     SetRelAlarm                      LABEL ---  NCODE   ?PR?TPL_OS_ALARM
      001508H     Set_Led                          LABEL ---  NCODE   ?PR?DRIVEURS_2008A
      001712H     ShutdownOS                       LABEL ---  NCODE   ?PR?TPL_OS
      0016E2H     StartOS                          LABEL ---  NCODE   ?PR?TPL_OS
      000094H     TerminateISR2                    LABEL ---  NCODE   ?PR?TPL_OS_IT
      001302H     TerminateTask                    LABEL ---  NCODE   ?PR?TPL_OS_TASK
      0014FEH     Toggle_Led                       LABEL ---  NCODE   ?PR?DRIVEURS_2008A
      005532H     Vieux_I_Pos                      VAR   ---  NDATA0  ?ND0?LIB_AUTOM_2008A
      001594H     WaitEvent                        LABEL ---  NCODE   ?PR?TPL_OS_EVENT
      00554CH     Y                                VAR   ---  NDATA0  ?ND0?CODE_APPLI
      00536CH     descriptor_of_alarm_Active_Ta... VAR   ---  NDATA0  ?ND0?TPL_OS_GENERATED_CONFIGURATION
      00535CH     descriptor_of_alarm_Active_Ta... VAR   ---  NDATA0  ?ND0?TPL_OS_GENERATED_CONFIGURATION
      005214H     descriptor_of_counter_General... VAR   ---  NDATA0  ?ND0?TPL_OS_GENERATED_CONFIGURATION
      0054DCH     descriptor_of_task_Controler_... VAR   ---  NDATA0  ?ND0?TPL_OS_GENERATED_CONFIGURATION
      00539AH     descriptor_of_task_Generer_Tr... VAR   ---  NDATA0  ?ND0?TPL_OS_GENERATED_CONFIGURATION
      00003EH     function_of_task_Controler_Vo... LABEL ---  NCODE   ?PR?CODE_APPLI
      000034H     function_of_task_Generer_Traj... LABEL ---  NCODE   ?PR?CODE_APPLI
      005514H     idle_task_context                VAR   ---  NDATA0  ?ND0?TPL_MACHINE_C166
      0054BEH     integer_context_of_Controler_... VAR   ---  NDATA0  ?ND0?TPL_OS_GENERATED_CONFIGURATION
      00537CH     integer_context_of_Generer_Tr... VAR   ---  NDATA0  ?ND0?TPL_OS_GENERATED_CONFIGURATION
      00007EH     main                             LABEL ---  NCODE   ?PR?CODE_APPLI
      00F400H     registers_c166                   VAR   ---  IDATA0  ?ID0?TPL_MACHINE_C166
      00F460H     registers_it                     VAR   ---  IDATA0  ?ID0?TPL_MACHINE_C166
L166 LINKER/LOCATER V5.22                                                             06/28/2009  16:38:42  PAGE 5


      0054E8H     res_sched                        VAR   ---  NDATA0  ?ND0?TPL_OS_KERNEL
      00524AH     stat_descriptor_of_alarm_Acti... VAR   ---  NDATA0  ?ND0?TPL_OS_GENERATED_CONFIGURATION
      005244H     stat_descriptor_of_alarm_Acti... VAR   ---  NDATA0  ?ND0?TPL_OS_GENERATED_CONFIGURATION
      005200H     static_descriptor_of_task_Con... VAR   ---  NDATA0  ?ND0?TPL_OS_GENERATED_CONFIGURATION
      0054AAH     static_descriptor_of_task_Gen... VAR   ---  NDATA0  ?ND0?TPL_OS_GENERATED_CONFIGURATION
      00F300H     sys_stack_zone_of_Controler_V... VAR   ---  IDATA0  ?ID0?TPL_OS_GENERATED_CONFIGURATION
      00F200H     sys_stack_zone_of_Generer_Tra... VAR   ---  IDATA0  ?ID0?TPL_OS_GENERATED_CONFIGURATION
      005254H     task_act_of_Active_Tache1        VAR   ---  NDATA0  ?ND0?TPL_OS_GENERATED_CONFIGURATION
      005250H     task_act_of_Active_Tache2        VAR   ---  NDATA0  ?ND0?TPL_OS_GENERATED_CONFIGURATION
      001722H     tpl_action_activate_task         LABEL ---  NCODE   ?PR?TPL_OS_ACTION
      001718H     tpl_action_callback              LABEL ---  NCODE   ?PR?TPL_OS_ACTION
      00172CH     tpl_action_setevent              LABEL ---  NCODE   ?PR?TPL_OS_ACTION
      000582H     tpl_activate_task                LABEL ---  NCODE   ?PR?TPL_OS_KERNEL
      005358H     tpl_alarm_table                  VAR   ---  NDATA0  ?ND0?TPL_OS_GENERATED_CONFIGURATION
      001698H     tpl_call_counter_tick            LABEL ---  NCODE   ?PR?TPL_OS_GENERATED_CONFIGURATION
      000B9AH     tpl_counter_tick                 LABEL ---  NCODE   ?PR?TPL_OS_ALARM_KERNEL
      0053A4H     tpl_fifo_rw                      VAR   ---  NDATA0  ?ND0?TPL_OS_GENERATED_CONFIGURATION
      000376H     tpl_get_internal_resource        LABEL ---  NCODE   ?PR?TPL_OS_KERNEL
      0015CCH     tpl_get_resource                 LABEL ---  NCODE   ?PR?TPL_OS_REZ_KERNEL
      000F40H     tpl_get_task_lock                LABEL ---  NCODE   ?PR?TPL_MACHINE_C166
      005511H     tpl_h_prio                       VAR   ---  NDATA0  ?ND0?TPL_OS_KERNEL
      000EACH     tpl_init_context                 LABEL ---  NCODE   ?PR?TPL_MACHINE_C166
      000618H     tpl_init_exec_object             LABEL ---  NCODE   ?PR?TPL_OS_KERNEL
      000F48H     tpl_init_machine                 LABEL ---  NCODE   ?PR?TPL_MACHINE_C166
      00064CH     tpl_init_os                      LABEL ---  NCODE   ?PR?TPL_OS_KERNEL
      00168AH     tpl_init_tick_timer              LABEL ---  NCODE   ?PR?TPL_OS_GENERATED_CONFIGURATION
      000A5EH     tpl_insert_time_obj              LABEL ---  NCODE   ?PR?TPL_OS_ALARM_KERNEL
      005512H     tpl_os_state                     VAR   ---  NDATA0  ?ND0?TPL_OS_KERNEL
      005242H     tpl_priority_0_fifo              VAR   ---  NDATA0  ?ND0?TPL_OS_GENERATED_CONFIGURATION
      005240H     tpl_priority_1_fifo              VAR   ---  NDATA0  ?ND0?TPL_OS_GENERATED_CONFIGURATION
      00523CH     tpl_priority_2_fifo              VAR   ---  NDATA0  ?ND0?TPL_OS_GENERATED_CONFIGURATION
      00032AH     tpl_put_new_exec_object          LABEL ---  NCODE   ?PR?TPL_OS_KERNEL
      0002DEH     tpl_put_preempted_exec_object    LABEL ---  NCODE   ?PR?TPL_OS_KERNEL
      000B84H     tpl_raise_alarm                  LABEL ---  NCODE   ?PR?TPL_OS_ALARM_KERNEL
      00522CH     tpl_ready_list                   VAR   ---  NDATA0  ?ND0?TPL_OS_GENERATED_CONFIGURATION
      00039EH     tpl_release_internal_resource    LABEL ---  NCODE   ?PR?TPL_OS_KERNEL
      001608H     tpl_release_resource             LABEL ---  NCODE   ?PR?TPL_OS_REZ_KERNEL
      000F44H     tpl_release_task_lock            LABEL ---  NCODE   ?PR?TPL_MACHINE_C166
      000B32H     tpl_remove_time_obj              LABEL ---  NCODE   ?PR?TPL_OS_ALARM_KERNEL
      0054E6H     tpl_running_obj                  VAR   ---  NDATA0  ?ND0?TPL_OS_KERNEL
      0003C2H     tpl_schedule                     LABEL ---  NCODE   ?PR?TPL_OS_KERNEL
      000500H     tpl_schedule_from_running        LABEL ---  NCODE   ?PR?TPL_OS_KERNEL
      0005D2H     tpl_set_event                    LABEL ---  NCODE   ?PR?TPL_OS_KERNEL
      000CE2H     tpl_shutdown                     LABEL ---  NCODE   ?PR?TPL_MACHINE_C166
      000CE0H     tpl_sleep                        LABEL ---  NCODE   ?PR?TPL_MACHINE_C166
      000CE6H     tpl_switch_context               LABEL ---  NCODE   ?PR?TPL_MACHINE_C166
      000DCCH     tpl_switch_context_from_it       LABEL ---  NCODE   ?PR?TPL_MACHINE_C166
      005238H     tpl_task_table                   VAR   ---  NDATA0  ?ND0?TPL_OS_GENERATED_CONFIGURATION
      0016B8H     tpl_timer6_tick                  LABEL ---  NCODE   ?PR?TPL_OS_GENERATED_CONFIGURATION
      0053AAH     usr_stack_zone_of_Controler_V... VAR   ---  NDATA0  ?ND0?TPL_OS_GENERATED_CONFIGURATION
      005258H     usr_stack_zone_of_Generer_Tra... VAR   ---  NDATA0  ?ND0?TPL_OS_GENERATED_CONFIGURATION



SYMBOL TABLE OF MODULE:  .\objs\test_diodes (?C_STARTUP)

      VALUE       TYPE      REP       LENGTH  TGR   SYMBOL NAME
L166 LINKER/LOCATER V5.22                                                             06/28/2009  16:38:42  PAGE 6


      =========================================================
      0001DCH     PUBLIC    LABEL     ---     ---   ?C_STARTUP
      005000H     PUBLIC    VAR       ---     ---   ?C_USRSTKBOT
      00FA00H     PUBLIC    CONST     ---     ---   ?C_SYSSTKBOT
      00FC00H     PUBLIC    CONST     ---     ---   ?C_SYSSTKTOP
      000000H     GLOBAL    INTNO     ---     ---   RESET
      000000H     SYMBOL    RBANK     ---     ---   ?C_MAINREGISTERS
      005200H     SYMBOL    VAR       ---     ---   ?C_USERSTKTOP
      000000H     SYMBOL    CONST     ---     ---   BCON0H
      00002EH     SYMBOL    CONST     ---     ---   BCON0L
      00FF0CH     SYMBOL    SFR       ---     ---   BUSCON0
      00FE10H     SYMBOL    SFR       ---     ---   CP
      00FE14H     SYMBOL    SFR       ---     ---   STKOV
      00FF12H     SYMBOL    SFR       ---     ---   SYSCON
      00FB6FH     SYMBOL    CONST     ---     ---   SYS_BITS
      000008H     SYMBOL    CONST     ---     ---   SYS_H
      000000H     SYMBOL    CONST     ---     ---   SYS_L
      000200H     SYMBOL    CONST     ---     ---   USTSZ
      000000H     SYMBOL    CONST     ---     ---   _ALECTL0
      000000H     SYMBOL    CONST     ---     ---   _BDRSTEN
      00FA00H     SYMBOL    CONST     ---     ---   _BOS
      000000H     SYMBOL    CONST     ---     ---   _BYTDIS
      000000H     SYMBOL    CONST     ---     ---   _CLKEN
      000000H     SYMBOL    CONST     ---     ---   _CSCFG
      000000H     SYMBOL    CONST     ---     ---   _CSREN0
      000000H     SYMBOL    CONST     ---     ---   _CSWEN0
      000001H     SYMBOL    CONST     ---     ---   _MCTC0
      000001H     SYMBOL    CONST     ---     ---   _MTTC0
      000000H     SYMBOL    CONST     ---     ---   _PWDCFG
      000000H     SYMBOL    CONST     ---     ---   _RDYEN0
      000000H     SYMBOL    CONST     ---     ---   _RDY_AS0
      000000H     SYMBOL    CONST     ---     ---   _ROMS1
      000000H     SYMBOL    CONST     ---     ---   _RWDC0
      000001H     SYMBOL    CONST     ---     ---   _SGTDIS
      000000H     SYMBOL    CONST     ---     ---   _STKSZ
      000001H     SYMBOL    CONST     ---     ---   _STKSZ1
      00FC00H     SYMBOL    CONST     ---     ---   _TOS
      000000H     SYMBOL    CONST     ---     ---   _VISIBLE
      000000H     SYMBOL    CONST     ---     ---   _XPEN
      000000H     SYMBOL    CONST     ---     ---   _XPERSHARE

      0001DCH     BLOCK     LVL=0     00ACH   ---   ?C_RESET
      0001DCH     LINE      ---       ---     ---   #669
      0001E0H     LINE      ---       ---     ---   #691
      0001E4H     LINE      ---       ---     ---   #692
      0001E8H     LINE      ---       ---     ---   #718
      0001ECH     LINE      ---       ---     ---   #719
      0001F0H     LINE      ---       ---     ---   #818
      0001F4H     LINE      ---       ---     ---   #835
      0001F8H     LINE      ---       ---     ---   #836
      0001FCH     LINE      ---       ---     ---   #841
      000200H     LINE      ---       ---     ---   #856
      000204H     LINE      ---       ---     ---   #857
      000206H     LINE      ---       ---     ---   #863
      000208H     LINE      ---       ---     ---   #864
      00020AH     LINE      ---       ---     ---   #865
      00020CH     LINE      ---       ---     ---   #866
L166 LINKER/LOCATER V5.22                                                             06/28/2009  16:38:42  PAGE 7


      00020EH     LINE      ---       ---     ---   #867
      000210H     LINE      ---       ---     ---   #868
      000214H     LINE      ---       ---     ---   #870
      000216H     LINE      ---       ---     ---   #871
      000218H     LINE      ---       ---     ---   #872
      00021AH     LINE      ---       ---     ---   #873
      00021EH     LINE      ---       ---     ---   #874
      000220H     LINE      ---       ---     ---   #875
      000222H     LINE      ---       ---     ---   #876
      000224H     LINE      ---       ---     ---   #877
      000226H     LINE      ---       ---     ---   #878
      000228H     LINE      ---       ---     ---   #879
      00022AH     LINE      ---       ---     ---   #880
      00022CH     LINE      ---       ---     ---   #881
      00022EH     LINE      ---       ---     ---   #882
      000230H     LINE      ---       ---     ---   #888
      000232H     LINE      ---       ---     ---   #889
      000234H     LINE      ---       ---     ---   #890
      000236H     LINE      ---       ---     ---   #891
      000238H     LINE      ---       ---     ---   #892
      00023AH     LINE      ---       ---     ---   #970
      00023EH     LINE      ---       ---     ---   #975
      000240H     LINE      ---       ---     ---   #976
      000242H     LINE      ---       ---     ---   #977
      000246H     LINE      ---       ---     ---   #978
      000248H     LINE      ---       ---     ---   #979
      00024CH     LINE      ---       ---     ---   #980
      00024EH     LINE      ---       ---     ---   #981
      000250H     LINE      ---       ---     ---   #982
      000252H     LINE      ---       ---     ---   #983
      000254H     LINE      ---       ---     ---   #984
      000256H     LINE      ---       ---     ---   #988
      000258H     LINE      ---       ---     ---   #989
      00025AH     LINE      ---       ---     ---   #990
      00025CH     LINE      ---       ---     ---   #991
      000260H     LINE      ---       ---     ---   #992
      000262H     LINE      ---       ---     ---   #993
      000264H     LINE      ---       ---     ---   #994
      000266H     LINE      ---       ---     ---   #996
      000268H     LINE      ---       ---     ---   #997
      00026AH     LINE      ---       ---     ---   #998
      00026EH     LINE      ---       ---     ---   #999
      000270H     LINE      ---       ---     ---   #1000
      000272H     LINE      ---       ---     ---   #1001
      000274H     LINE      ---       ---     ---   #1002
      000278H     LINE      ---       ---     ---   #1003
      00027AH     LINE      ---       ---     ---   #1004
      00027CH     LINE      ---       ---     ---   #1005
      00027EH     LINE      ---       ---     ---   #1006
      000280H     LINE      ---       ---     ---   #1007
      000282H     LINE      ---       ---     ---   #1008
      000284H     LINE      ---       ---     ---   #1165
      000284H     SYMBOL    LABEL     ---     ---   EndInit
      000280H     SYMBOL    LABEL     ---     ---   StoreBit
      00027EH     SYMBOL    LABEL     ---     ---   SetBit
      000266H     SYMBOL    LABEL     ---     ---   InitBit
      000254H     SYMBOL    LABEL     ---     ---   CopyInitVal
L166 LINKER/LOCATER V5.22                                                             06/28/2009  16:38:42  PAGE 8


      000252H     SYMBOL    LABEL     ---     ---   LenLoad
      00023EH     SYMBOL    LABEL     ---     ---   RepeatInit
      00023AH     SYMBOL    LABEL     ---     ---   Init_Vars
      00023AH     SYMBOL    LABEL     ---     ---   EndClear
      000230H     SYMBOL    LABEL     ---     ---   ClearNear
      000214H     SYMBOL    LABEL     ---     ---   ClearBit
      000206H     SYMBOL    LABEL     ---     ---   RepeatClear
      000200H     SYMBOL    LABEL     ---     ---   Clr_Memory
      ---         BLOCKEND  LVL=0     ---     ---   
      001512H     PUBLIC    LABEL     ---     ---   Reset_Led
      0013F6H     PUBLIC    LABEL     ---     ---   Configurer_Tout_Les_Periphs
      0014FEH     PUBLIC    LABEL     ---     ---   Toggle_Led
      0014ACH     PUBLIC    LABEL     ---     ---   Fixe_Rapport
      001448H     PUBLIC    LABEL     ---     ---   Lire_Vitesse
      001476H     PUBLIC    LABEL     ---     ---   Init_Position
      00146CH     PUBLIC    LABEL     ---     ---   Lire_Position
      0014F8H     PUBLIC    LABEL     ---     ---   Modifier_Led_2
      0014F2H     PUBLIC    LABEL     ---     ---   Modifier_Led_1
      00141CH     PUBLIC    LABEL     ---     ---   Lire_Vitesse_Float
      001480H     PUBLIC    LABEL     ---     ---   Config_PWM
      001508H     PUBLIC    LABEL     ---     ---   Set_Led
      00145CH     PUBLIC    LABEL     ---     ---   Config_Capture
      0014E2H     PUBLIC    LABEL     ---     ---   Init_Led
      00140EH     PUBLIC    LABEL     ---     ---   Config_ADConverter
      005548H     PUBLIC    VAR       ---     ---   Position
      00554AH     PUBLIC    VAR       ---     ---   N_Pulse

      0013F6H     BLOCK     LVL=0     0018H   ---   Configurer_Tout_Les_Periphs
      0013F6H     LINE      ---       ---     ---   #56
      0013F6H     LINE      ---       ---     ---   #63
      0013F8H     LINE      ---       ---     ---   #64
      0013FAH     LINE      ---       ---     ---   #65
      0013FCH     LINE      ---       ---     ---   #66
      0013FEH     LINE      ---       ---     ---   #67
      001404H     LINE      ---       ---     ---   #68
      00140AH     LINE      ---       ---     ---   #70
      00140CH     LINE      ---       ---     ---   #72
      ---         BLOCKEND  LVL=0     ---     ---   

      00140EH     BLOCK     LVL=0     000EH   ---   Config_ADConverter
      00140EH     LINE      ---       ---     ---   #93
      00140EH     LINE      ---       ---     ---   #98
      001412H     LINE      ---       ---     ---   #109
      001416H     LINE      ---       ---     ---   #110
      00141AH     LINE      ---       ---     ---   #111
      ---         BLOCKEND  LVL=0     ---     ---   

      00141CH     BLOCK     LVL=0     002CH   ---   Lire_Vitesse_Float
      00141CH     BLOCK     LVL=1     002AH   ---   
      000004H     SYMBOL    REG       ---     ---   Vitesse_Lue
      000005H     SYMBOL    REG       ---     ---   Nbre
      ---         BLOCKEND  LVL=1     ---     ---   
      00141CH     LINE      ---       ---     ---   #123
      00141CH     LINE      ---       ---     ---   #124
      00141CH     LINE      ---       ---     ---   #129
      00141EH     LINE      ---       ---     ---   #130
      00141EH     LINE      ---       ---     ---   #131
L166 LINKER/LOCATER V5.22                                                             06/28/2009  16:38:42  PAGE 9


      001422H     LINE      ---       ---     ---   #132
      00142AH     LINE      ---       ---     ---   #134
      00142EH     LINE      ---       ---     ---   #137
      001446H     LINE      ---       ---     ---   #140
      001446H     LINE      ---       ---     ---   #141
      ---         BLOCKEND  LVL=0     ---     ---   

      001448H     BLOCK     LVL=0     0014H   ---   Lire_Vitesse
      001448H     LINE      ---       ---     ---   #152
      001448H     LINE      ---       ---     ---   #156
      00144AH     LINE      ---       ---     ---   #157
      00144AH     LINE      ---       ---     ---   #158
      00144EH     LINE      ---       ---     ---   #160
      00145AH     LINE      ---       ---     ---   #161
      ---         BLOCKEND  LVL=0     ---     ---   

      00145CH     BLOCK     LVL=0     0010H   ---   Config_Capture
      00145CH     LINE      ---       ---     ---   #172
      00145CH     LINE      ---       ---     ---   #176
      001460H     LINE      ---       ---     ---   #177
      001464H     LINE      ---       ---     ---   #178
      001468H     LINE      ---       ---     ---   #179
      00146AH     LINE      ---       ---     ---   #180
      ---         BLOCKEND  LVL=0     ---     ---   

      00146CH     BLOCK     LVL=0     000AH   ---   Lire_Position
      00146CH     LINE      ---       ---     ---   #183
      00146CH     LINE      ---       ---     ---   #185
      001470H     LINE      ---       ---     ---   #186
      001474H     LINE      ---       ---     ---   #187
      ---         BLOCKEND  LVL=0     ---     ---   

      001476H     BLOCK     LVL=0     000AH   ---   Init_Position
      000008H     SYMBOL    REG       ---     ---   Position_Initiale
      001476H     LINE      ---       ---     ---   #190
      001476H     LINE      ---       ---     ---   #192
      00147AH     LINE      ---       ---     ---   #193
      00147EH     LINE      ---       ---     ---   #194
      ---         BLOCKEND  LVL=0     ---     ---   

      001480H     BLOCK     LVL=0     002CH   ---   Config_PWM
      001480H     LINE      ---       ---     ---   #201
      001480H     LINE      ---       ---     ---   #207
      001484H     LINE      ---       ---     ---   #208
      001488H     LINE      ---       ---     ---   #209
      00148CH     LINE      ---       ---     ---   #211
      001492H     LINE      ---       ---     ---   #212
      001496H     LINE      ---       ---     ---   #213
      00149CH     LINE      ---       ---     ---   #218
      0014A0H     LINE      ---       ---     ---   #220
      0014A4H     LINE      ---       ---     ---   #223
      0014A8H     LINE      ---       ---     ---   #226
      0014AAH     LINE      ---       ---     ---   #229
      ---         BLOCKEND  LVL=0     ---     ---   

      0014ACH     BLOCK     LVL=0     0036H   ---   Fixe_Rapport
      00000CH     SYMBOL    REG       ---     ---   Sigma
L166 LINKER/LOCATER V5.22                                                             06/28/2009  16:38:42  PAGE 10


      0014B2H     BLOCK     LVL=1     002CH   ---   
      000004H     SYMBOL    REG       ---     ---   valeur
      000005H     SYMBOL    REG       ---     ---   valeur_entiere
      ---         BLOCKEND  LVL=1     ---     ---   
      0014ACH     LINE      ---       ---     ---   #231
      0014B2H     LINE      ---       ---     ---   #232
      0014B2H     LINE      ---       ---     ---   #236
      0014C0H     LINE      ---       ---     ---   #238
      0014C6H     LINE      ---       ---     ---   #239
      0014CAH     LINE      ---       ---     ---   #240
      0014D4H     LINE      ---       ---     ---   #241
      0014DAH     LINE      ---       ---     ---   #242
      0014DEH     LINE      ---       ---     ---   #243
      ---         BLOCKEND  LVL=0     ---     ---   

      0014E2H     BLOCK     LVL=0     0010H   ---   Init_Led
      0014E2H     LINE      ---       ---     ---   #249
      0014E2H     LINE      ---       ---     ---   #250
      0014E6H     LINE      ---       ---     ---   #251
      0014ECH     LINE      ---       ---     ---   #252
      0014F0H     LINE      ---       ---     ---   #253
      ---         BLOCKEND  LVL=0     ---     ---   

      0014F2H     BLOCK     LVL=0     0006H   ---   Modifier_Led_1
      0014F2H     LINE      ---       ---     ---   #254
      0014F2H     LINE      ---       ---     ---   #255
      0014F6H     LINE      ---       ---     ---   #256
      ---         BLOCKEND  LVL=0     ---     ---   

      0014F8H     BLOCK     LVL=0     0006H   ---   Modifier_Led_2
      0014F8H     LINE      ---       ---     ---   #258
      0014F8H     LINE      ---       ---     ---   #259
      0014FCH     LINE      ---       ---     ---   #260
      ---         BLOCKEND  LVL=0     ---     ---   

      0014FEH     BLOCK     LVL=0     000AH   ---   Toggle_Led
      000048H     SYMBOL    REG       ---     ---   Num_Led
      0014FEH     LINE      ---       ---     ---   #262
      0014FEH     LINE      ---       ---     ---   #263
      001506H     LINE      ---       ---     ---   #264
      ---         BLOCKEND  LVL=0     ---     ---   

      001508H     BLOCK     LVL=0     000AH   ---   Set_Led
      000048H     SYMBOL    REG       ---     ---   Num_Led
      001508H     LINE      ---       ---     ---   #266
      001508H     LINE      ---       ---     ---   #267
      001510H     LINE      ---       ---     ---   #268
      ---         BLOCKEND  LVL=0     ---     ---   

      001512H     BLOCK     LVL=0     000CH   ---   Reset_Led
      000048H     SYMBOL    REG       ---     ---   Num_Led
      001512H     LINE      ---       ---     ---   #270
      001512H     LINE      ---       ---     ---   #271
      00151CH     LINE      ---       ---     ---   #272
      ---         BLOCKEND  LVL=0     ---     ---   
      00102CH     PUBLIC    LABEL     ---     ---   Init_Trajectoire
      001010H     PUBLIC    LABEL     ---     ---   Reinit_Etat
L166 LINKER/LOCATER V5.22                                                             06/28/2009  16:38:42  PAGE 11


      0010AEH     PUBLIC    LABEL     ---     ---   Iterer_Trajectoire
      000F6CH     PUBLIC    LABEL     ---     ---   Calculer_Etat_Relatif
      000F4EH     PUBLIC    LABEL     ---     ---   Lire_Etat_Absolu
      00106AH     PUBLIC    LABEL     ---     ---   Compteur_Trajectoire
      001070H     PUBLIC    LABEL     ---     ---   Lire_Consigne
      005532H     PUBLIC    VAR       ---     ---   Vieux_I_Pos
      005536H     PUBLIC    VAR       ---     ---   E

      000F4EH     BLOCK     LVL=0     001EH   ---   Lire_Etat_Absolu
      000F50H     BLOCK     LVL=1     0018H   ---   
      000000H     SYMBOL    AUTO      ---     ---   Courant
      ---         BLOCKEND  LVL=1     ---     ---   
      000F4EH     LINE      ---       ---     ---   #8
      000F50H     LINE      ---       ---     ---   #9
      000F50H     LINE      ---       ---     ---   #11
      000F56H     LINE      ---       ---     ---   #12
      000F5EH     LINE      ---       ---     ---   #13
      000F66H     LINE      ---       ---     ---   #15
      000F68H     LINE      ---       ---     ---   #16
      ---         BLOCKEND  LVL=0     ---     ---   

      000F6CH     BLOCK     LVL=0     00A4H   ---   Calculer_Etat_Relatif
      000006H     SYMBOL    AUTO      ---     ---   Etat_Cons
      000F6EH     BLOCK     LVL=1     009EH   ---   
      000000H     SYMBOL    AUTO      ---     ---   Courant
      ---         BLOCKEND  LVL=1     ---     ---   
      000F6CH     LINE      ---       ---     ---   #18
      000F6EH     LINE      ---       ---     ---   #19
      000F6EH     LINE      ---       ---     ---   #21
      000F7EH     LINE      ---       ---     ---   #22
      000F90H     LINE      ---       ---     ---   #23
      000FBAH     LINE      ---       ---     ---   #24
      000FDAH     LINE      ---       ---     ---   #25
      000FFAH     LINE      ---       ---     ---   #27
      00100AH     LINE      ---       ---     ---   #28
      00100CH     LINE      ---       ---     ---   #29
      ---         BLOCKEND  LVL=0     ---     ---   

      001010H     BLOCK     LVL=0     001CH   ---   Reinit_Etat
      00000DH     SYMBOL    REG       ---     ---   Longueur_Trajet
      001010H     LINE      ---       ---     ---   #31
      001014H     LINE      ---       ---     ---   #33
      001020H     LINE      ---       ---     ---   #34
      001028H     LINE      ---       ---     ---   #35
      ---         BLOCKEND  LVL=0     ---     ---   

      00102CH     BLOCK     LVL=0     003EH   ---   Init_Trajectoire
      000008H     SYMBOL    REG       ---     ---   Position_Station
      00102CH     LINE      ---       ---     ---   #88
      00102CH     LINE      ---       ---     ---   #90
      001030H     LINE      ---       ---     ---   #91
      001034H     LINE      ---       ---     ---   #93
      00104CH     LINE      ---       ---     ---   #94
      001054H     LINE      ---       ---     ---   #95
      00105CH     LINE      ---       ---     ---   #96
      001060H     LINE      ---       ---     ---   #97
      001068H     LINE      ---       ---     ---   #98
L166 LINKER/LOCATER V5.22                                                             06/28/2009  16:38:42  PAGE 12


      ---         BLOCKEND  LVL=0     ---     ---   

      00106AH     BLOCK     LVL=0     0006H   ---   Compteur_Trajectoire
      00106AH     LINE      ---       ---     ---   #100
      00106AH     LINE      ---       ---     ---   #102
      00106EH     LINE      ---       ---     ---   #103
      ---         BLOCKEND  LVL=0     ---     ---   

      001070H     BLOCK     LVL=0     003EH   ---   Lire_Consigne
      001072H     BLOCK     LVL=1     0038H   ---   
      000000H     SYMBOL    AUTO      ---     ---   Consigne
      ---         BLOCKEND  LVL=1     ---     ---   
      001070H     LINE      ---       ---     ---   #105
      001072H     LINE      ---       ---     ---   #106
      001072H     LINE      ---       ---     ---   #108
      00107AH     LINE      ---       ---     ---   #109
      001088H     LINE      ---       ---     ---   #110
      0010A8H     LINE      ---       ---     ---   #112
      0010AAH     LINE      ---       ---     ---   #113
      ---         BLOCKEND  LVL=0     ---     ---   

      0010AEH     BLOCK     LVL=0     00C0H   ---   Iterer_Trajectoire
      0010AEH     BLOCK     LVL=1     00BEH   ---   
      000007H     SYMBOL    REG       ---     ---   VV
      ---         BLOCKEND  LVL=1     ---     ---   
      0010AEH     LINE      ---       ---     ---   #116
      0010AEH     LINE      ---       ---     ---   #117
      0010AEH     LINE      ---       ---     ---   #118
      0010AEH     LINE      ---       ---     ---   #121
      0010B2H     LINE      ---       ---     ---   #122
      0010B6H     LINE      ---       ---     ---   #124
      0010C0H     LINE      ---       ---     ---   #126
      0010C8H     LINE      ---       ---     ---   #127
      0010CAH     LINE      ---       ---     ---   #129
      0010D2H     LINE      ---       ---     ---   #134
      0010DAH     LINE      ---       ---     ---   #135
      0010DCH     LINE      ---       ---     ---   #137
      0010F8H     LINE      ---       ---     ---   #139
      001100H     LINE      ---       ---     ---   #140
      00110AH     LINE      ---       ---     ---   #142
      00110EH     LINE      ---       ---     ---   #143
      001116H     LINE      ---       ---     ---   #144
      001118H     LINE      ---       ---     ---   #154
      00111CH     LINE      ---       ---     ---   #156
      00112EH     LINE      ---       ---     ---   #159
      001132H     LINE      ---       ---     ---   #160
      001132H     LINE      ---       ---     ---   #162
      00116AH     LINE      ---       ---     ---   #164
      00116CH     LINE      ---       ---     ---   #172
      ---         BLOCKEND  LVL=0     ---     ---   
      00173CH     PUBLIC    LABEL     ---     ---   Init_Mon_Stdio

      00173CH     BLOCK     LVL=0     0022H   ---   Init_Mon_Stdio
      00173CH     LINE      ---       ---     ---   #27
      00173CH     LINE      ---       ---     ---   #31
      001740H     LINE      ---       ---     ---   #34
      001744H     LINE      ---       ---     ---   #35
L166 LINKER/LOCATER V5.22                                                             06/28/2009  16:38:42  PAGE 13


      001746H     LINE      ---       ---     ---   #36
      00174AH     LINE      ---       ---     ---   #37
      00174CH     LINE      ---       ---     ---   #38
      001750H     LINE      ---       ---     ---   #39
      001754H     LINE      ---       ---     ---   #40
      001758H     LINE      ---       ---     ---   #60
      00175CH     LINE      ---       ---     ---   #66
      ---         BLOCKEND  LVL=0     ---     ---   
      00131EH     PUBLIC    LABEL     ---     ---   ChainTask
      0012CCH     PUBLIC    LABEL     ---     ---   ActivateTask
      001302H     PUBLIC    LABEL     ---     ---   TerminateTask
      0013D2H     PUBLIC    LABEL     ---     ---   GetTaskID
      0013E2H     PUBLIC    LABEL     ---     ---   GetTaskState
      0013AAH     PUBLIC    LABEL     ---     ---   Schedule

      0012CCH     BLOCK     LVL=0     0036H   ---   ActivateTask
      00000DH     SYMBOL    REG       ---     ---   task_id
      0012D2H     BLOCK     LVL=1     002AH   ---   
      00004EH     SYMBOL    REG       ---     ---   result
      ---         BLOCKEND  LVL=1     ---     ---   
      0012CCH     LINE      ---       ---     ---   #42
      0012D2H     LINE      ---       ---     ---   #44
      0012D2H     LINE      ---       ---     ---   #46
      0012D4H     LINE      ---       ---     ---   #49
      0012D8H     LINE      ---       ---     ---   #60
      0012E6H     LINE      ---       ---     ---   #61
      0012ECH     LINE      ---       ---     ---   #63
      0012F2H     LINE      ---       ---     ---   #64
      0012F2H     LINE      ---       ---     ---   #65
      0012F6H     LINE      ---       ---     ---   #72
      0012FAH     LINE      ---       ---     ---   #74
      0012FCH     LINE      ---       ---     ---   #75
      ---         BLOCKEND  LVL=0     ---     ---   

      001302H     BLOCK     LVL=0     001CH   ---   TerminateTask
      001302H     LINE      ---       ---     ---   #78
      001302H     LINE      ---       ---     ---   #79
      001302H     LINE      ---       ---     ---   #81
      001302H     LINE      ---       ---     ---   #84
      001306H     LINE      ---       ---     ---   #98
      001310H     LINE      ---       ---     ---   #101
      001316H     LINE      ---       ---     ---   #109
      00131AH     LINE      ---       ---     ---   #111
      00131CH     LINE      ---       ---     ---   #112
      ---         BLOCKEND  LVL=0     ---     ---   

      00131EH     BLOCK     LVL=0     008CH   ---   ChainTask
      00000DH     SYMBOL    REG       ---     ---   task_id
      001324H     BLOCK     LVL=1     0080H   ---   
      00004EH     SYMBOL    REG       ---     ---   result
      00000DH     SYMBOL    REG       ---     ---   exec_obj
      001346H     BLOCK     LVL=2     004CH   ---   
      00008CH     SYMBOL    REG       ---     ---   count
      ---         BLOCKEND  LVL=2     ---     ---   
      ---         BLOCKEND  LVL=1     ---     ---   
      00131EH     LINE      ---       ---     ---   #115
      001324H     LINE      ---       ---     ---   #117
L166 LINKER/LOCATER V5.22                                                             06/28/2009  16:38:42  PAGE 14


      001324H     LINE      ---       ---     ---   #118
      001326H     LINE      ---       ---     ---   #125
      00132AH     LINE      ---       ---     ---   #141
      001334H     LINE      ---       ---     ---   #143
      00133AH     LINE      ---       ---     ---   #147
      001344H     LINE      ---       ---     ---   #149
      001346H     LINE      ---       ---     ---   #151
      001346H     LINE      ---       ---     ---   #152
      00134AH     LINE      ---       ---     ---   #154
      001354H     LINE      ---       ---     ---   #156
      001358H     LINE      ---       ---     ---   #158
      001360H     LINE      ---       ---     ---   #162
      001366H     LINE      ---       ---     ---   #163
      00136CH     LINE      ---       ---     ---   #164
      00136EH     LINE      ---       ---     ---   #169
      001374H     LINE      ---       ---     ---   #170
      001374H     LINE      ---       ---     ---   #171
      001374H     LINE      ---       ---     ---   #173
      00137AH     LINE      ---       ---     ---   #178
      001384H     LINE      ---       ---     ---   #182
      00138EH     LINE      ---       ---     ---   #183
      001390H     LINE      ---       ---     ---   #187
      001392H     LINE      ---       ---     ---   #188
      001392H     LINE      ---       ---     ---   #189
      001392H     LINE      ---       ---     ---   #191
      001398H     LINE      ---       ---     ---   #194
      00139EH     LINE      ---       ---     ---   #195
      00139EH     LINE      ---       ---     ---   #203
      0013A2H     LINE      ---       ---     ---   #205
      0013A4H     LINE      ---       ---     ---   #206
      ---         BLOCKEND  LVL=0     ---     ---   

      0013AAH     BLOCK     LVL=0     0028H   ---   Schedule
      0013ACH     BLOCK     LVL=1     0022H   ---   
      00004DH     SYMBOL    REG       ---     ---   result
      ---         BLOCKEND  LVL=1     ---     ---   
      0013AAH     LINE      ---       ---     ---   #209
      0013ACH     LINE      ---       ---     ---   #210
      0013ACH     LINE      ---       ---     ---   #211
      0013AEH     LINE      ---       ---     ---   #214
      0013B2H     LINE      ---       ---     ---   #227
      0013BAH     LINE      ---       ---     ---   #229
      0013C0H     LINE      ---       ---     ---   #231
      0013C8H     LINE      ---       ---     ---   #238
      0013CCH     LINE      ---       ---     ---   #240
      0013CEH     LINE      ---       ---     ---   #241
      ---         BLOCKEND  LVL=0     ---     ---   

      0013D2H     BLOCK     LVL=0     0010H   ---   GetTaskID
      000008H     SYMBOL    REG       ---     ---   task_id
      0013D2H     LINE      ---       ---     ---   #244
      0013D2H     LINE      ---       ---     ---   #251
      0013DEH     LINE      ---       ---     ---   #253
      0013E0H     LINE      ---       ---     ---   #254
      ---         BLOCKEND  LVL=0     ---     ---   

      0013E2H     BLOCK     LVL=0     0014H   ---   GetTaskState
L166 LINKER/LOCATER V5.22                                                             06/28/2009  16:38:42  PAGE 15


      000008H     SYMBOL    REG       ---     ---   task_id
      000009H     SYMBOL    REG       ---     ---   state
      0013E2H     LINE      ---       ---     ---   #257
      0013E2H     LINE      ---       ---     ---   #260
      0013E2H     LINE      ---       ---     ---   #261
      0013E2H     LINE      ---       ---     ---   #278
      0013F2H     LINE      ---       ---     ---   #286
      0013F4H     LINE      ---       ---     ---   #287
      ---         BLOCKEND  LVL=0     ---     ---   
      0016E2H     PUBLIC    LABEL     ---     ---   StartOS
      0016DCH     PUBLIC    LABEL     ---     ---   GetActiveApplicationMode
      001712H     PUBLIC    LABEL     ---     ---   ShutdownOS
      005513H     SYMBOL    VAR       ---     ---   application_mode

      0016DCH     BLOCK     LVL=0     0006H   ---   GetActiveApplicationMode
      0016DCH     LINE      ---       ---     ---   #52
      0016DCH     LINE      ---       ---     ---   #54
      0016E0H     LINE      ---       ---     ---   #55
      ---         BLOCKEND  LVL=0     ---     ---   

      0016E2H     BLOCK     LVL=0     0030H   ---   StartOS
      00004DH     SYMBOL    REG       ---     ---   mode
      0016E2H     LINE      ---       ---     ---   #61
      0016E6H     LINE      ---       ---     ---   #65
      0016ECH     LINE      ---       ---     ---   #68
      0016F0H     LINE      ---       ---     ---   #70
      0016F4H     LINE      ---       ---     ---   #72
      0016F8H     LINE      ---       ---     ---   #74
      001700H     LINE      ---       ---     ---   #87
      001706H     LINE      ---       ---     ---   #89
      00170AH     LINE      ---       ---     ---   #92
      00170EH     LINE      ---       ---     ---   #93
      ---         BLOCKEND  LVL=0     ---     ---   

      001712H     BLOCK     LVL=0     0006H   ---   ShutdownOS
      000048H     SYMBOL    REG       ---     ---   error
      001712H     LINE      ---       ---     ---   #98
      001712H     LINE      ---       ---     ---   #104
      001716H     LINE      ---       ---     ---   #105
      ---         BLOCKEND  LVL=0     ---     ---   
      001718H     PUBLIC    LABEL     ---     ---   tpl_action_callback
      00172CH     PUBLIC    LABEL     ---     ---   tpl_action_setevent
      001722H     PUBLIC    LABEL     ---     ---   tpl_action_activate_task

      001718H     BLOCK     LVL=0     000AH   ---   tpl_action_callback
      000008H     SYMBOL    REG       ---     ---   action
      001718H     LINE      ---       ---     ---   #36
      001718H     LINE      ---       ---     ---   #45
      00171EH     LINE      ---       ---     ---   #47
      001720H     LINE      ---       ---     ---   #48
      ---         BLOCKEND  LVL=0     ---     ---   

      001722H     BLOCK     LVL=0     000AH   ---   tpl_action_activate_task
      000008H     SYMBOL    REG       ---     ---   action
      001722H     LINE      ---       ---     ---   #53
      001722H     LINE      ---       ---     ---   #65
      00172AH     LINE      ---       ---     ---   #66
L166 LINKER/LOCATER V5.22                                                             06/28/2009  16:38:42  PAGE 16


      ---         BLOCKEND  LVL=0     ---     ---   

      00172CH     BLOCK     LVL=0     0010H   ---   tpl_action_setevent
      000008H     SYMBOL    REG       ---     ---   action
      00172CH     LINE      ---       ---     ---   #71
      00172CH     LINE      ---       ---     ---   #83
      00173AH     LINE      ---       ---     ---   #84
      ---         BLOCKEND  LVL=0     ---     ---   
      0011EEH     PUBLIC    LABEL     ---     ---   SetRelAlarm
      00129AH     PUBLIC    LABEL     ---     ---   CancelAlarm
      00125EH     PUBLIC    LABEL     ---     ---   SetAbsAlarm
      0011B2H     PUBLIC    LABEL     ---     ---   GetAlarm
      00116EH     PUBLIC    LABEL     ---     ---   GetAlarmBase

      00116EH     BLOCK     LVL=0     0044H   ---   GetAlarmBase
      000048H     SYMBOL    REG       ---     ---   alarm_id
      000009H     SYMBOL    REG       ---     ---   info
      00116EH     BLOCK     LVL=1     0042H   ---   
      000004H     SYMBOL    REG       ---     ---   alarm
      ---         BLOCKEND  LVL=1     ---     ---   
      00116EH     LINE      ---       ---     ---   #40
      00116EH     LINE      ---       ---     ---   #44
      00116EH     LINE      ---       ---     ---   #45
      00116EH     LINE      ---       ---     ---   #59
      001178H     LINE      ---       ---     ---   #61
      001188H     LINE      ---       ---     ---   #62
      00119AH     LINE      ---       ---     ---   #63
      0011AEH     LINE      ---       ---     ---   #69
      0011B0H     LINE      ---       ---     ---   #70
      ---         BLOCKEND  LVL=0     ---     ---   

      0011B2H     BLOCK     LVL=0     003CH   ---   GetAlarm
      000048H     SYMBOL    REG       ---     ---   alarm_id
      000009H     SYMBOL    REG       ---     ---   tick
      0011B2H     BLOCK     LVL=1     003AH   ---   
      000084H     SYMBOL    REG       ---     ---   result
      000006H     SYMBOL    REG       ---     ---   alarm
      ---         BLOCKEND  LVL=1     ---     ---   
      0011B2H     LINE      ---       ---     ---   #77
      0011B2H     LINE      ---       ---     ---   #80
      0011B2H     LINE      ---       ---     ---   #81
      0011B4H     LINE      ---       ---     ---   #95
      0011C0H     LINE      ---       ---     ---   #98
      0011C8H     LINE      ---       ---     ---   #100
      0011E6H     LINE      ---       ---     ---   #101
      0011E8H     LINE      ---       ---     ---   #104
      0011EAH     LINE      ---       ---     ---   #105
      0011EAH     LINE      ---       ---     ---   #111
      0011ECH     LINE      ---       ---     ---   #112
      ---         BLOCKEND  LVL=0     ---     ---   

      0011EEH     BLOCK     LVL=0     0070H   ---   SetRelAlarm
      000048H     SYMBOL    REG       ---     ---   alarm_id
      000009H     SYMBOL    REG       ---     ---   increment
      00000BH     SYMBOL    REG       ---     ---   cycle
      0011F0H     BLOCK     LVL=1     006AH   ---   
      00004DH     SYMBOL    REG       ---     ---   result
L166 LINKER/LOCATER V5.22                                                             06/28/2009  16:38:42  PAGE 17


      000002H     SYMBOL    REG       ---     ---   alarm
      001204H     BLOCK     LVL=2     0050H   ---   
      000003H     SYMBOL    REG       ---     ---   cnt
      000008H     SYMBOL    REG       ---     ---   date
      ---         BLOCKEND  LVL=2     ---     ---   
      ---         BLOCKEND  LVL=1     ---     ---   
      0011EEH     LINE      ---       ---     ---   #119
      0011F0H     LINE      ---       ---     ---   #124
      0011F0H     LINE      ---       ---     ---   #125
      0011F2H     LINE      ---       ---     ---   #142
      0011FEH     LINE      ---       ---     ---   #144
      001204H     LINE      ---       ---     ---   #145
      001204H     LINE      ---       ---     ---   #146
      00120AH     LINE      ---       ---     ---   #148
      00121AH     LINE      ---       ---     ---   #149
      00122CH     LINE      ---       ---     ---   #151
      001238H     LINE      ---       ---     ---   #152
      001238H     LINE      ---       ---     ---   #153
      001240H     LINE      ---       ---     ---   #154
      001248H     LINE      ---       ---     ---   #155
      00124EH     LINE      ---       ---     ---   #156
      001254H     LINE      ---       ---     ---   #157
      001256H     LINE      ---       ---     ---   #161
      001258H     LINE      ---       ---     ---   #162
      001258H     LINE      ---       ---     ---   #168
      00125AH     LINE      ---       ---     ---   #169
      ---         BLOCKEND  LVL=0     ---     ---   

      00125EH     BLOCK     LVL=0     003CH   ---   SetAbsAlarm
      000048H     SYMBOL    REG       ---     ---   alarm_id
      000009H     SYMBOL    REG       ---     ---   start
      00000BH     SYMBOL    REG       ---     ---   cycle
      001260H     BLOCK     LVL=1     0036H   ---   
      00004DH     SYMBOL    REG       ---     ---   result
      000006H     SYMBOL    REG       ---     ---   alarm
      ---         BLOCKEND  LVL=1     ---     ---   
      00125EH     LINE      ---       ---     ---   #176
      001260H     LINE      ---       ---     ---   #181
      001260H     LINE      ---       ---     ---   #182
      001262H     LINE      ---       ---     ---   #199
      00126EH     LINE      ---       ---     ---   #201
      001274H     LINE      ---       ---     ---   #204
      00127CH     LINE      ---       ---     ---   #205
      001284H     LINE      ---       ---     ---   #206
      00128AH     LINE      ---       ---     ---   #207
      001290H     LINE      ---       ---     ---   #208
      001292H     LINE      ---       ---     ---   #212
      001294H     LINE      ---       ---     ---   #213
      001294H     LINE      ---       ---     ---   #219
      001296H     LINE      ---       ---     ---   #220
      ---         BLOCKEND  LVL=0     ---     ---   

      00129AH     BLOCK     LVL=0     0032H   ---   CancelAlarm
      000048H     SYMBOL    REG       ---     ---   alarm_id
      00129EH     BLOCK     LVL=1     0028H   ---   
      00004EH     SYMBOL    REG       ---     ---   result
      00000DH     SYMBOL    REG       ---     ---   alarm
L166 LINKER/LOCATER V5.22                                                             06/28/2009  16:38:42  PAGE 18


      ---         BLOCKEND  LVL=1     ---     ---   
      00129AH     LINE      ---       ---     ---   #227
      00129EH     LINE      ---       ---     ---   #230
      00129EH     LINE      ---       ---     ---   #231
      0012A0H     LINE      ---       ---     ---   #244
      0012ACH     LINE      ---       ---     ---   #246
      0012B4H     LINE      ---       ---     ---   #248
      0012BAH     LINE      ---       ---     ---   #249
      0012C0H     LINE      ---       ---     ---   #250
      0012C2H     LINE      ---       ---     ---   #253
      0012C4H     LINE      ---       ---     ---   #254
      0012C4H     LINE      ---       ---     ---   #260
      0012C6H     LINE      ---       ---     ---   #261
      ---         BLOCKEND  LVL=0     ---     ---   
      000A5EH     PUBLIC    LABEL     ---     ---   tpl_insert_time_obj
      000B32H     PUBLIC    LABEL     ---     ---   tpl_remove_time_obj
      000B9AH     PUBLIC    LABEL     ---     ---   tpl_counter_tick
      000B84H     PUBLIC    LABEL     ---     ---   tpl_raise_alarm

      000A5EH     BLOCK     LVL=0     00D4H   ---   tpl_insert_time_obj
      000008H     SYMBOL    REG       ---     ---   time_obj
      000A5EH     BLOCK     LVL=1     00D2H   ---   
      000009H     SYMBOL    REG       ---     ---   counter
      00000AH     SYMBOL    REG       ---     ---   current_to
      00000BH     SYMBOL    REG       ---     ---   prev_to
      ---         BLOCKEND  LVL=1     ---     ---   
      000A5EH     LINE      ---       ---     ---   #41
      000A5EH     LINE      ---       ---     ---   #43
      000A5EH     LINE      ---       ---     ---   #45
      000A64H     LINE      ---       ---     ---   #47
      000A6AH     LINE      ---       ---     ---   #49
      000A6EH     LINE      ---       ---     ---   #51
      000A72H     LINE      ---       ---     ---   #55
      000A76H     LINE      ---       ---     ---   #56
      000A7AH     LINE      ---       ---     ---   #57
      000A82H     LINE      ---       ---     ---   #58
      000A84H     LINE      ---       ---     ---   #63
      000A86H     LINE      ---       ---     ---   #66
      000A88H     LINE      ---       ---     ---   #67
      000A8CH     LINE      ---       ---     ---   #68
      000AA6H     LINE      ---       ---     ---   #70
      000AAAH     LINE      ---       ---     ---   #71
      000AAEH     LINE      ---       ---     ---   #74
      000AB2H     LINE      ---       ---     ---   #76
      000AB6H     LINE      ---       ---     ---   #77
      000AB6H     LINE      ---       ---     ---   #78
      000ABAH     LINE      ---       ---     ---   #81
      000ABEH     LINE      ---       ---     ---   #82
      000AC0H     LINE      ---       ---     ---   #88
      000AC4H     LINE      ---       ---     ---   #89
      000AC4H     LINE      ---       ---     ---   #95
      000AE2H     LINE      ---       ---     ---   #97
      000AFAH     LINE      ---       ---     ---   #100
      000AFEH     LINE      ---       ---     ---   #101
      000B00H     LINE      ---       ---     ---   #105
      000B2CH     LINE      ---       ---     ---   #108
      000B30H     LINE      ---       ---     ---   #109
L166 LINKER/LOCATER V5.22                                                             06/28/2009  16:38:42  PAGE 19


      000B30H     LINE      ---       ---     ---   #111
      000B30H     LINE      ---       ---     ---   #112
      ---         BLOCKEND  LVL=0     ---     ---   

      000B32H     BLOCK     LVL=0     0052H   ---   tpl_remove_time_obj
      000008H     SYMBOL    REG       ---     ---   time_obj
      000B32H     BLOCK     LVL=1     0050H   ---   
      000006H     SYMBOL    REG       ---     ---   counter
      ---         BLOCKEND  LVL=1     ---     ---   
      000B32H     LINE      ---       ---     ---   #119
      000B32H     LINE      ---       ---     ---   #121
      000B32H     LINE      ---       ---     ---   #123
      000B38H     LINE      ---       ---     ---   #127
      000B40H     LINE      ---       ---     ---   #129
      000B48H     LINE      ---       ---     ---   #130
      000B48H     LINE      ---       ---     ---   #133
      000B50H     LINE      ---       ---     ---   #135
      000B58H     LINE      ---       ---     ---   #136
      000B58H     LINE      ---       ---     ---   #138
      000B5EH     LINE      ---       ---     ---   #140
      000B66H     LINE      ---       ---     ---   #141
      000B66H     LINE      ---       ---     ---   #142
      000B6CH     LINE      ---       ---     ---   #144
      000B74H     LINE      ---       ---     ---   #145
      000B74H     LINE      ---       ---     ---   #150
      000B7AH     LINE      ---       ---     ---   #152
      000B82H     LINE      ---       ---     ---   #153
      ---         BLOCKEND  LVL=0     ---     ---   

      000B84H     BLOCK     LVL=0     0016H   ---   tpl_raise_alarm
      000008H     SYMBOL    REG       ---     ---   time_obj
      000B86H     BLOCK     LVL=1     0010H   ---   
      00004DH     SYMBOL    REG       ---     ---   result
      000004H     SYMBOL    REG       ---     ---   stat_alarm
      000004H     SYMBOL    REG       ---     ---   action_desc
      ---         BLOCKEND  LVL=1     ---     ---   
      000B84H     LINE      ---       ---     ---   #164
      000B86H     LINE      ---       ---     ---   #166
      000B86H     LINE      ---       ---     ---   #167
      000B88H     LINE      ---       ---     ---   #170
      000B8AH     LINE      ---       ---     ---   #172
      000B8EH     LINE      ---       ---     ---   #175
      000B96H     LINE      ---       ---     ---   #177
      000B96H     LINE      ---       ---     ---   #178
      ---         BLOCKEND  LVL=0     ---     ---   

      000B9AH     BLOCK     LVL=0     0146H   ---   tpl_counter_tick
      00000DH     SYMBOL    REG       ---     ---   counter
      000BA6H     BLOCK     LVL=1     012EH   ---   
      00000EH     SYMBOL    REG       ---     ---   t_obj
      000009H     SYMBOL    REG       ---     ---   expire
      000000H     SYMBOL    AUTO      ---     ---   date
      00004FH     SYMBOL    REG       ---     ---   need_resched
      000C4AH     BLOCK     LVL=2     0064H   ---   
      000004H     SYMBOL    AUTO      ---     ---   date
      ---         BLOCKEND  LVL=2     ---     ---   
      ---         BLOCKEND  LVL=1     ---     ---   
L166 LINKER/LOCATER V5.22                                                             06/28/2009  16:38:42  PAGE 20


      000B9AH     LINE      ---       ---     ---   #193
      000BA6H     LINE      ---       ---     ---   #195
      000BA6H     LINE      ---       ---     ---   #199
      000BA8H     LINE      ---       ---     ---   #202
      000BBCH     LINE      ---       ---     ---   #204
      000BD2H     LINE      ---       ---     ---   #206
      000BE0H     LINE      ---       ---     ---   #207
      000BEEH     LINE      ---       ---     ---   #209
      000BF6H     LINE      ---       ---     ---   #210
      000BF8H     LINE      ---       ---     ---   #213
      000C08H     LINE      ---       ---     ---   #214
      000C08H     LINE      ---       ---     ---   #215
      000C16H     LINE      ---       ---     ---   #216
      000C20H     LINE      ---       ---     ---   #220
      000C26H     LINE      ---       ---     ---   #222
      000C28H     LINE      ---       ---     ---   #229
      000C2CH     LINE      ---       ---     ---   #232
      000C34H     LINE      ---       ---     ---   #234
      000C3EH     LINE      ---       ---     ---   #237
      000C4AH     LINE      ---       ---     ---   #238
      000C4AH     LINE      ---       ---     ---   #242
      000C66H     LINE      ---       ---     ---   #243
      000C7CH     LINE      ---       ---     ---   #245
      000C98H     LINE      ---       ---     ---   #246
      000C98H     LINE      ---       ---     ---   #247
      000CA8H     LINE      ---       ---     ---   #250
      000CAEH     LINE      ---       ---     ---   #251
      000CB0H     LINE      ---       ---     ---   #253
      000CB6H     LINE      ---       ---     ---   #254
      000CB6H     LINE      ---       ---     ---   #257
      000CBAH     LINE      ---       ---     ---   #258
      000CD2H     LINE      ---       ---     ---   #259
      000CD2H     LINE      ---       ---     ---   #260
      000CD4H     LINE      ---       ---     ---   #261
      ---         BLOCKEND  LVL=0     ---     ---   
      00155EH     PUBLIC    LABEL     ---     ---   ClearEvent
      00151EH     PUBLIC    LABEL     ---     ---   SetEvent
      001582H     PUBLIC    LABEL     ---     ---   GetEvent
      001594H     PUBLIC    LABEL     ---     ---   WaitEvent

      00151EH     BLOCK     LVL=0     0040H   ---   SetEvent
      00000EH     SYMBOL    REG       ---     ---   task_id
      00004DH     SYMBOL    REG       ---     ---   event
      001528H     BLOCK     LVL=1     002EH   ---   
      00004FH     SYMBOL    REG       ---     ---   result
      ---         BLOCKEND  LVL=1     ---     ---   
      00151EH     LINE      ---       ---     ---   #31
      001528H     LINE      ---       ---     ---   #34
      001528H     LINE      ---       ---     ---   #35
      00152AH     LINE      ---       ---     ---   #45
      00152EH     LINE      ---       ---     ---   #54
      001540H     LINE      ---       ---     ---   #55
      001546H     LINE      ---       ---     ---   #57
      00154CH     LINE      ---       ---     ---   #58
      001550H     LINE      ---       ---     ---   #59
      001550H     LINE      ---       ---     ---   #63
      001554H     LINE      ---       ---     ---   #69
L166 LINKER/LOCATER V5.22                                                             06/28/2009  16:38:42  PAGE 21


      001556H     LINE      ---       ---     ---   #70
      ---         BLOCKEND  LVL=0     ---     ---   

      00155EH     BLOCK     LVL=0     0024H   ---   ClearEvent
      00004DH     SYMBOL    REG       ---     ---   event
      00155EH     LINE      ---       ---     ---   #77
      001562H     LINE      ---       ---     ---   #79
      001562H     LINE      ---       ---     ---   #80
      001562H     LINE      ---       ---     ---   #87
      001566H     LINE      ---       ---     ---   #99
      001578H     LINE      ---       ---     ---   #103
      00157CH     LINE      ---       ---     ---   #109
      00157EH     LINE      ---       ---     ---   #110
      ---         BLOCKEND  LVL=0     ---     ---   

      001582H     BLOCK     LVL=0     0012H   ---   GetEvent
      000008H     SYMBOL    REG       ---     ---   task_id
      000009H     SYMBOL    REG       ---     ---   event
      001582H     LINE      ---       ---     ---   #116
      001582H     LINE      ---       ---     ---   #119
      001582H     LINE      ---       ---     ---   #120
      001582H     LINE      ---       ---     ---   #137
      001590H     LINE      ---       ---     ---   #145
      001592H     LINE      ---       ---     ---   #146
      ---         BLOCKEND  LVL=0     ---     ---   

      001594H     BLOCK     LVL=0     0038H   ---   WaitEvent
      00004DH     SYMBOL    REG       ---     ---   event
      001594H     LINE      ---       ---     ---   #152
      001598H     LINE      ---       ---     ---   #154
      001598H     LINE      ---       ---     ---   #155
      001598H     LINE      ---       ---     ---   #162
      00159CH     LINE      ---       ---     ---   #178
      0015A6H     LINE      ---       ---     ---   #185
      0015B6H     LINE      ---       ---     ---   #188
      0015BCH     LINE      ---       ---     ---   #190
      0015C2H     LINE      ---       ---     ---   #191
      0015C2H     LINE      ---       ---     ---   #195
      0015C6H     LINE      ---       ---     ---   #201
      0015C8H     LINE      ---       ---     ---   #202
      ---         BLOCKEND  LVL=0     ---     ---   
      000094H     PUBLIC    LABEL     ---     ---   TerminateISR2

      000094H     BLOCK     LVL=0     0004H   ---   TerminateISR2
      000094H     LINE      ---       ---     ---   #43
      000094H     LINE      ---       ---     ---   #44
      000094H     LINE      ---       ---     ---   #46
      000094H     LINE      ---       ---     ---   #76
      000096H     LINE      ---       ---     ---   #77
      ---         BLOCKEND  LVL=0     ---     ---   
      000618H     PUBLIC    LABEL     ---     ---   tpl_init_exec_object
      00064CH     PUBLIC    LABEL     ---     ---   tpl_init_os
      00039EH     PUBLIC    LABEL     ---     ---   tpl_release_internal_resource
      000582H     PUBLIC    LABEL     ---     ---   tpl_activate_task
      0002DEH     PUBLIC    LABEL     ---     ---   tpl_put_preempted_exec_object
      00032AH     PUBLIC    LABEL     ---     ---   tpl_put_new_exec_object
      0005D2H     PUBLIC    LABEL     ---     ---   tpl_set_event
L166 LINKER/LOCATER V5.22                                                             06/28/2009  16:38:42  PAGE 22


      000376H     PUBLIC    LABEL     ---     ---   tpl_get_internal_resource
      0003C2H     PUBLIC    LABEL     ---     ---   tpl_schedule
      000500H     PUBLIC    LABEL     ---     ---   tpl_schedule_from_running
      000288H     SYMBOL    LABEL     ---     ---   tpl_get_exec_object
      0054E6H     PUBLIC    VAR       ---     ---   tpl_running_obj
      0054E8H     PUBLIC    VAR       ---     ---   res_sched
      0054F8H     PUBLIC    VAR       ---     ---   INTERNAL_RES_SCHEDULER
      005510H     PUBLIC    VAR       ---     ---   RES_SCHEDULER
      005511H     PUBLIC    VAR       ---     ---   tpl_h_prio
      005512H     PUBLIC    VAR       ---     ---   tpl_os_state
      0054EEH     SYMBOL    VAR       ---     ---   idle_task
      0054FCH     SYMBOL    VAR       ---     ---   idle_task_static

      000288H     BLOCK     LVL=0     0056H   ---   tpl_get_exec_object
      000288H     BLOCK     LVL=1     0054H   ---   
      000007H     SYMBOL    REG       ---     ---   elected
      000005H     SYMBOL    REG       ---     ---   highest
      00008CH     SYMBOL    REG       ---     ---   read_idx
      ---         BLOCKEND  LVL=1     ---     ---   
      000288H     LINE      ---       ---     ---   #256
      000288H     LINE      ---       ---     ---   #257
      000288H     LINE      ---       ---     ---   #258
      00028CH     LINE      ---       ---     ---   #268
      00029AH     LINE      ---       ---     ---   #271
      0002A2H     LINE      ---       ---     ---   #274
      0002AAH     LINE      ---       ---     ---   #277
      0002ACH     LINE      ---       ---     ---   #278
      0002B4H     LINE      ---       ---     ---   #280
      0002B6H     LINE      ---       ---     ---   #281
      0002B6H     LINE      ---       ---     ---   #282
      0002BAH     LINE      ---       ---     ---   #283
      0002C4H     LINE      ---       ---     ---   #286
      0002C6H     LINE      ---       ---     ---   #288
      0002CAH     LINE      ---       ---     ---   #289
      0002DAH     LINE      ---       ---     ---   #293
      0002DCH     LINE      ---       ---     ---   #294
      ---         BLOCKEND  LVL=0     ---     ---   

      0002DEH     BLOCK     LVL=0     004CH   ---   tpl_put_preempted_exec_object
      000008H     SYMBOL    REG       ---     ---   exec_obj
      0002DEH     BLOCK     LVL=1     004AH   ---   
      00008CH     SYMBOL    REG       ---     ---   prio
      000005H     SYMBOL    REG       ---     ---   fifo
      00008EH     SYMBOL    REG       ---     ---   write_idx
      ---         BLOCKEND  LVL=1     ---     ---   
      0002DEH     LINE      ---       ---     ---   #305
      0002DEH     LINE      ---       ---     ---   #307
      0002DEH     LINE      ---       ---     ---   #317
      0002E2H     LINE      ---       ---     ---   #323
      0002EEH     LINE      ---       ---     ---   #326
      0002FAH     LINE      ---       ---     ---   #327
      0002FEH     LINE      ---       ---     ---   #328
      0002FEH     LINE      ---       ---     ---   #329
      000302H     LINE      ---       ---     ---   #332
      000308H     LINE      ---       ---     ---   #335
      000310H     LINE      ---       ---     ---   #338
      00031EH     LINE      ---       ---     ---   #341
L166 LINKER/LOCATER V5.22                                                             06/28/2009  16:38:42  PAGE 23


      000324H     LINE      ---       ---     ---   #342
      000328H     LINE      ---       ---     ---   #343
      ---         BLOCKEND  LVL=0     ---     ---   

      00032AH     BLOCK     LVL=0     004CH   ---   tpl_put_new_exec_object
      000008H     SYMBOL    REG       ---     ---   exec_obj
      00032AH     BLOCK     LVL=1     004AH   ---   
      00008CH     SYMBOL    REG       ---     ---   prio
      000005H     SYMBOL    REG       ---     ---   fifo
      00008EH     SYMBOL    REG       ---     ---   write_idx
      ---         BLOCKEND  LVL=1     ---     ---   
      00032AH     LINE      ---       ---     ---   #356
      00032AH     LINE      ---       ---     ---   #358
      00032AH     LINE      ---       ---     ---   #368
      000330H     LINE      ---       ---     ---   #375
      000340H     LINE      ---       ---     ---   #378
      00034CH     LINE      ---       ---     ---   #379
      00034EH     LINE      ---       ---     ---   #380
      00034EH     LINE      ---       ---     ---   #383
      000354H     LINE      ---       ---     ---   #386
      00035CH     LINE      ---       ---     ---   #389
      00036AH     LINE      ---       ---     ---   #392
      000370H     LINE      ---       ---     ---   #393
      000374H     LINE      ---       ---     ---   #394
      ---         BLOCKEND  LVL=0     ---     ---   

      000376H     BLOCK     LVL=0     0028H   ---   tpl_get_internal_resource
      000008H     SYMBOL    REG       ---     ---   a_task
      000376H     BLOCK     LVL=1     0026H   ---   
      000006H     SYMBOL    REG       ---     ---   rez
      ---         BLOCKEND  LVL=1     ---     ---   
      000376H     LINE      ---       ---     ---   #406
      000376H     LINE      ---       ---     ---   #408
      000376H     LINE      ---       ---     ---   #410
      00037EH     LINE      ---       ---     ---   #412
      000388H     LINE      ---       ---     ---   #414
      00038EH     LINE      ---       ---     ---   #415
      000396H     LINE      ---       ---     ---   #416
      00039CH     LINE      ---       ---     ---   #417
      ---         BLOCKEND  LVL=0     ---     ---   

      00039EH     BLOCK     LVL=0     0024H   ---   tpl_release_internal_resource
      000008H     SYMBOL    REG       ---     ---   a_task
      00039EH     BLOCK     LVL=1     0022H   ---   
      000006H     SYMBOL    REG       ---     ---   rez
      ---         BLOCKEND  LVL=1     ---     ---   
      00039EH     LINE      ---       ---     ---   #427
      00039EH     LINE      ---       ---     ---   #429
      00039EH     LINE      ---       ---     ---   #431
      0003A6H     LINE      ---       ---     ---   #433
      0003B2H     LINE      ---       ---     ---   #435
      0003B8H     LINE      ---       ---     ---   #436
      0003C0H     LINE      ---       ---     ---   #437
      ---         BLOCKEND  LVL=0     ---     ---   

      0003C2H     BLOCK     LVL=0     013EH   ---   tpl_schedule
      00004DH     SYMBOL    REG       ---     ---   from
L166 LINKER/LOCATER V5.22                                                             06/28/2009  16:38:42  PAGE 24


      0003CAH     BLOCK     LVL=1     012EH   ---   
      00000FH     SYMBOL    REG       ---     ---   old_running_obj
      00004EH     SYMBOL    REG       ---     ---   state
      00008AH     SYMBOL    REG       ---     ---   schedule
      ---         BLOCKEND  LVL=1     ---     ---   
      0003C2H     LINE      ---       ---     ---   #450
      0003CAH     LINE      ---       ---     ---   #451
      0003CAH     LINE      ---       ---     ---   #465
      0003D4H     LINE      ---       ---     ---   #471
      0003F8H     LINE      ---       ---     ---   #477
      0003FCH     LINE      ---       ---     ---   #480
      0003FEH     LINE      ---       ---     ---   #486
      000404H     LINE      ---       ---     ---   #489
      00040AH     LINE      ---       ---     ---   #495
      000412H     LINE      ---       ---     ---   #503
      000414H     LINE      ---       ---     ---   #526
      000418H     LINE      ---       ---     ---   #528
      00041EH     LINE      ---       ---     ---   #532
      00042CH     LINE      ---       ---     ---   #535
      000438H     LINE      ---       ---     ---   #542
      00043EH     LINE      ---       ---     ---   #543
      000440H     LINE      ---       ---     ---   #549
      000446H     LINE      ---       ---     ---   #550
      000446H     LINE      ---       ---     ---   #551
      000446H     LINE      ---       ---     ---   #553
      00044EH     LINE      ---       ---     ---   #557
      000458H     LINE      ---       ---     ---   #558
      000460H     LINE      ---       ---     ---   #559
      000460H     LINE      ---       ---     ---   #564
      000468H     LINE      ---       ---     ---   #566
      000470H     LINE      ---       ---     ---   #570
      000478H     LINE      ---       ---     ---   #585
      000478H     LINE      ---       ---     ---   #592
      000478H     LINE      ---       ---     ---   #594
      000482H     LINE      ---       ---     ---   #597
      00048AH     LINE      ---       ---     ---   #604
      000494H     LINE      ---       ---     ---   #607
      00049AH     LINE      ---       ---     ---   #608
      00049CH     LINE      ---       ---     ---   #609
      0004A6H     LINE      ---       ---     ---   #611
      0004ACH     LINE      ---       ---     ---   #612
      0004AEH     LINE      ---       ---     ---   #615
      0004B4H     LINE      ---       ---     ---   #616
      0004B4H     LINE      ---       ---     ---   #618
      0004BAH     LINE      ---       ---     ---   #620
      0004C0H     LINE      ---       ---     ---   #627
      0004C8H     LINE      ---       ---     ---   #628
      0004CAH     LINE      ---       ---     ---   #633
      0004D6H     LINE      ---       ---     ---   #634
      0004D6H     LINE      ---       ---     ---   #635
      0004D8H     LINE      ---       ---     ---   #638
      0004DEH     LINE      ---       ---     ---   #644
      0004EAH     LINE      ---       ---     ---   #645
      0004ECH     LINE      ---       ---     ---   #650
      0004F8H     LINE      ---       ---     ---   #651
      0004F8H     LINE      ---       ---     ---   #652
      0004F8H     LINE      ---       ---     ---   #653
L166 LINKER/LOCATER V5.22                                                             06/28/2009  16:38:42  PAGE 25


      ---         BLOCKEND  LVL=0     ---     ---   

      000500H     BLOCK     LVL=0     0082H   ---   tpl_schedule_from_running
      000502H     BLOCK     LVL=1     007CH   ---   
      00000DH     SYMBOL    REG       ---     ---   old_running_obj
      ---         BLOCKEND  LVL=1     ---     ---   
      000500H     LINE      ---       ---     ---   #665
      000502H     LINE      ---       ---     ---   #666
      000502H     LINE      ---       ---     ---   #667
      000506H     LINE      ---       ---     ---   #678
      000514H     LINE      ---       ---     ---   #681
      000516H     LINE      ---       ---     ---   #688
      00051CH     LINE      ---       ---     ---   #694
      000524H     LINE      ---       ---     ---   #706
      00052CH     LINE      ---       ---     ---   #708
      000534H     LINE      ---       ---     ---   #712
      00053AH     LINE      ---       ---     ---   #727
      00053AH     LINE      ---       ---     ---   #739
      000544H     LINE      ---       ---     ---   #742
      00054CH     LINE      ---       ---     ---   #749
      000556H     LINE      ---       ---     ---   #751
      00055CH     LINE      ---       ---     ---   #752
      00055EH     LINE      ---       ---     ---   #753
      000568H     LINE      ---       ---     ---   #755
      00056EH     LINE      ---       ---     ---   #756
      000570H     LINE      ---       ---     ---   #759
      000576H     LINE      ---       ---     ---   #760
      000576H     LINE      ---       ---     ---   #766
      00057EH     LINE      ---       ---     ---   #767
      ---         BLOCKEND  LVL=0     ---     ---   

      000582H     BLOCK     LVL=0     0050H   ---   tpl_activate_task
      00000DH     SYMBOL    REG       ---     ---   a_task
      000588H     BLOCK     LVL=1     0044H   ---   
      00004EH     SYMBOL    REG       ---     ---   result
      00008CH     SYMBOL    REG       ---     ---   count
      ---         BLOCKEND  LVL=1     ---     ---   
      000582H     LINE      ---       ---     ---   #782
      000588H     LINE      ---       ---     ---   #784
      000588H     LINE      ---       ---     ---   #785
      00058AH     LINE      ---       ---     ---   #786
      00058EH     LINE      ---       ---     ---   #788
      000598H     LINE      ---       ---     ---   #790
      00059CH     LINE      ---       ---     ---   #792
      0005A4H     LINE      ---       ---     ---   #795
      0005AAH     LINE      ---       ---     ---   #796
      0005AEH     LINE      ---       ---     ---   #797
      0005B0H     LINE      ---       ---     ---   #802
      0005B6H     LINE      ---       ---     ---   #803
      0005B6H     LINE      ---       ---     ---   #804
      0005B6H     LINE      ---       ---     ---   #806
      0005BCH     LINE      ---       ---     ---   #809
      0005C6H     LINE      ---       ---     ---   #811
      0005CAH     LINE      ---       ---     ---   #812
      0005CAH     LINE      ---       ---     ---   #814
      0005CCH     LINE      ---       ---     ---   #815
      ---         BLOCKEND  LVL=0     ---     ---   
L166 LINKER/LOCATER V5.22                                                             06/28/2009  16:38:42  PAGE 26



      0005D2H     BLOCK     LVL=0     0046H   ---   tpl_set_event
      000006H     SYMBOL    REG       ---     ---   a_task
      000049H     SYMBOL    REG       ---     ---   incoming_event
      0005D4H     BLOCK     LVL=1     0042H   ---   
      000084H     SYMBOL    REG       ---     ---   result
      ---         BLOCKEND  LVL=1     ---     ---   
      0005D2H     LINE      ---       ---     ---   #825
      0005D4H     LINE      ---       ---     ---   #828
      0005D4H     LINE      ---       ---     ---   #829
      0005D6H     LINE      ---       ---     ---   #831
      0005DCH     LINE      ---       ---     ---   #834
      0005E8H     LINE      ---       ---     ---   #837
      0005F4H     LINE      ---       ---     ---   #841
      0005FAH     LINE      ---       ---     ---   #843
      000602H     LINE      ---       ---     ---   #846
      000608H     LINE      ---       ---     ---   #855
      00060CH     LINE      ---       ---     ---   #857
      000610H     LINE      ---       ---     ---   #858
      000610H     LINE      ---       ---     ---   #860
      000612H     LINE      ---       ---     ---   #863
      000614H     LINE      ---       ---     ---   #864
      000614H     LINE      ---       ---     ---   #866
      000616H     LINE      ---       ---     ---   #867
      ---         BLOCKEND  LVL=0     ---     ---   

      000618H     BLOCK     LVL=0     0034H   ---   tpl_init_exec_object
      00000DH     SYMBOL    REG       ---     ---   exec_obj
      000618H     LINE      ---       ---     ---   #881
      00061CH     LINE      ---       ---     ---   #885
      000626H     LINE      ---       ---     ---   #887
      00062CH     LINE      ---       ---     ---   #890
      000632H     LINE      ---       ---     ---   #892
      00063CH     LINE      ---       ---     ---   #899
      000648H     LINE      ---       ---     ---   #900
      ---         BLOCKEND  LVL=0     ---     ---   

      00064CH     BLOCK     LVL=0     0046H   ---   tpl_init_os
      000048H     SYMBOL    REG       ---     ---   app_mode
      00064EH     BLOCK     LVL=1     0040H   ---   
      00000DH     SYMBOL    REG       ---     ---   i
      000006H     SYMBOL    REG       ---     ---   auto_time_obj
      000005H     SYMBOL    REG       ---     ---   auto_task
      ---         BLOCKEND  LVL=1     ---     ---   
      00064CH     LINE      ---       ---     ---   #908
      00064EH     LINE      ---       ---     ---   #909
      00064EH     LINE      ---       ---     ---   #928
      000650H     LINE      ---       ---     ---   #930
      00065AH     LINE      ---       ---     ---   #931
      000662H     LINE      ---       ---     ---   #934
      000666H     LINE      ---       ---     ---   #935
      00066AH     LINE      ---       ---     ---   #942
      00066CH     LINE      ---       ---     ---   #944
      000676H     LINE      ---       ---     ---   #945
      00067EH     LINE      ---       ---     ---   #947
      000684H     LINE      ---       ---     ---   #948
      00068AH     LINE      ---       ---     ---   #949
L166 LINKER/LOCATER V5.22                                                             06/28/2009  16:38:42  PAGE 27


      00068EH     LINE      ---       ---     ---   #966
      ---         BLOCKEND  LVL=0     ---     ---   
      001632H     PUBLIC    LABEL     ---     ---   GetResource
      00165EH     PUBLIC    LABEL     ---     ---   ReleaseResource

      001632H     BLOCK     LVL=0     002CH   ---   GetResource
      000048H     SYMBOL    REG       ---     ---   res_id
      001636H     BLOCK     LVL=1     0022H   ---   
      00004EH     SYMBOL    REG       ---     ---   result
      00000DH     SYMBOL    REG       ---     ---   res
      ---         BLOCKEND  LVL=1     ---     ---   
      001632H     LINE      ---       ---     ---   #29
      001636H     LINE      ---       ---     ---   #31
      001636H     LINE      ---       ---     ---   #33
      001638H     LINE      ---       ---     ---   #45
      001640H     LINE      ---       ---     ---   #47
      001644H     LINE      ---       ---     ---   #48
      001646H     LINE      ---       ---     ---   #54
      001648H     LINE      ---       ---     ---   #56
      001648H     LINE      ---       ---     ---   #58
      00164CH     LINE      ---       ---     ---   #67
      001652H     LINE      ---       ---     ---   #73
      001656H     LINE      ---       ---     ---   #80
      001658H     LINE      ---       ---     ---   #81
      ---         BLOCKEND  LVL=0     ---     ---   

      00165EH     BLOCK     LVL=0     002CH   ---   ReleaseResource
      000048H     SYMBOL    REG       ---     ---   res_id
      001662H     BLOCK     LVL=1     0022H   ---   
      00004EH     SYMBOL    REG       ---     ---   result
      00000DH     SYMBOL    REG       ---     ---   res
      ---         BLOCKEND  LVL=1     ---     ---   
      00165EH     LINE      ---       ---     ---   #83
      001662H     LINE      ---       ---     ---   #85
      001662H     LINE      ---       ---     ---   #87
      001664H     LINE      ---       ---     ---   #99
      00166CH     LINE      ---       ---     ---   #101
      001670H     LINE      ---       ---     ---   #102
      001672H     LINE      ---       ---     ---   #108
      001674H     LINE      ---       ---     ---   #110
      001674H     LINE      ---       ---     ---   #112
      001678H     LINE      ---       ---     ---   #124
      00167EH     LINE      ---       ---     ---   #130
      001682H     LINE      ---       ---     ---   #137
      001684H     LINE      ---       ---     ---   #138
      ---         BLOCKEND  LVL=0     ---     ---   
      001608H     PUBLIC    LABEL     ---     ---   tpl_release_resource
      0015CCH     PUBLIC    LABEL     ---     ---   tpl_get_resource

      0015CCH     BLOCK     LVL=0     003CH   ---   tpl_get_resource
      000008H     SYMBOL    REG       ---     ---   res
      0015CCH     LINE      ---       ---     ---   #38
      0015CCH     LINE      ---       ---     ---   #42
      0015D4H     LINE      ---       ---     ---   #45
      0015E0H     LINE      ---       ---     ---   #46
      0015E8H     LINE      ---       ---     ---   #48
      0015F4H     LINE      ---       ---     ---   #50
L166 LINKER/LOCATER V5.22                                                             06/28/2009  16:38:42  PAGE 28


      001602H     LINE      ---       ---     ---   #55
      001606H     LINE      ---       ---     ---   #56
      ---         BLOCKEND  LVL=0     ---     ---   

      001608H     BLOCK     LVL=0     002AH   ---   tpl_release_resource
      000008H     SYMBOL    REG       ---     ---   res
      001608H     LINE      ---       ---     ---   #62
      001608H     LINE      ---       ---     ---   #66
      001614H     LINE      ---       ---     ---   #68
      001620H     LINE      ---       ---     ---   #69
      001626H     LINE      ---       ---     ---   #71
      00162AH     LINE      ---       ---     ---   #73
      001630H     LINE      ---       ---     ---   #74
      ---         BLOCKEND  LVL=0     ---     ---   
      000EACH     PUBLIC    LABEL     ---     ---   tpl_init_context
      000CE0H     PUBLIC    LABEL     ---     ---   tpl_sleep
      000F44H     PUBLIC    LABEL     ---     ---   tpl_release_task_lock
      000CE2H     PUBLIC    LABEL     ---     ---   tpl_shutdown
      000CE6H     PUBLIC    LABEL     ---     ---   tpl_switch_context
      000F48H     PUBLIC    LABEL     ---     ---   tpl_init_machine
      000F40H     PUBLIC    LABEL     ---     ---   tpl_get_task_lock
      000DCCH     PUBLIC    LABEL     ---     ---   tpl_switch_context_from_it
      005514H     PUBLIC    VAR       ---     ---   idle_task_context
      00F400H     PUBLIC    VAR       ---     ---   registers_c166
      00F460H     PUBLIC    VAR       ---     ---   registers_it

      000CE0H     BLOCK     LVL=0     0002H   ---   tpl_sleep
      000CE0H     LINE      ---       ---     ---   #42
      000CE0H     LINE      ---       ---     ---   #44
      ---         BLOCKEND  LVL=0     ---     ---   

      000CE2H     BLOCK     LVL=0     0004H   ---   tpl_shutdown
      000CE2H     LINE      ---       ---     ---   #51
      000CE2H     LINE      ---       ---     ---   #54
      000CE4H     LINE      ---       ---     ---   #56
      ---         BLOCKEND  LVL=0     ---     ---   

      000CE6H     BLOCK     LVL=0     00E6H   ---   tpl_switch_context
      000008H     SYMBOL    REG       ---     ---   old_context
      000009H     SYMBOL    REG       ---     ---   new_context
      000CE6H     BLOCK     LVL=1     00E4H   ---   
      000D5CH     SYMBOL    LABEL     ---     ---   NO_OLD_CONTEXT_TO_SAVE
      ---         BLOCKEND  LVL=1     ---     ---   
      000CE6H     LINE      ---       ---     ---   #59
      000CE6H     LINE      ---       ---     ---   #60
      000CE6H     LINE      ---       ---     ---   #73
      000CE8H     LINE      ---       ---     ---   #74
      000CECH     LINE      ---       ---     ---   #75
      000CEEH     LINE      ---       ---     ---   #76
      000CF0H     LINE      ---       ---     ---   #78
      000CF4H     LINE      ---       ---     ---   #79
      000CF8H     LINE      ---       ---     ---   #80
      000CFAH     LINE      ---       ---     ---   #81
      000CFCH     LINE      ---       ---     ---   #82
      000D00H     LINE      ---       ---     ---   #83
      000D04H     LINE      ---       ---     ---   #91
      000D06H     LINE      ---       ---     ---   #92
L166 LINKER/LOCATER V5.22                                                             06/28/2009  16:38:42  PAGE 29


      000D08H     LINE      ---       ---     ---   #94
      000D0AH     LINE      ---       ---     ---   #96
      000D0EH     LINE      ---       ---     ---   #97
      000D10H     LINE      ---       ---     ---   #98
      000D14H     LINE      ---       ---     ---   #99
      000D16H     LINE      ---       ---     ---   #100
      000D1AH     LINE      ---       ---     ---   #101
      000D1CH     LINE      ---       ---     ---   #102
      000D20H     LINE      ---       ---     ---   #103
      000D22H     LINE      ---       ---     ---   #104
      000D24H     LINE      ---       ---     ---   #105
      000D26H     LINE      ---       ---     ---   #106
      000D2AH     LINE      ---       ---     ---   #107
      000D2CH     LINE      ---       ---     ---   #108
      000D30H     LINE      ---       ---     ---   #109
      000D32H     LINE      ---       ---     ---   #110
      000D34H     LINE      ---       ---     ---   #111
      000D38H     LINE      ---       ---     ---   #112
      000D3AH     LINE      ---       ---     ---   #113
      000D3EH     LINE      ---       ---     ---   #114
      000D40H     LINE      ---       ---     ---   #115
      000D44H     LINE      ---       ---     ---   #116
      000D46H     LINE      ---       ---     ---   #117
      000D4AH     LINE      ---       ---     ---   #118
      000D4CH     LINE      ---       ---     ---   #119
      000D50H     LINE      ---       ---     ---   #120
      000D52H     LINE      ---       ---     ---   #121
      000D54H     LINE      ---       ---     ---   #122
      000D56H     LINE      ---       ---     ---   #123
      000D58H     LINE      ---       ---     ---   #124
      000D5AH     LINE      ---       ---     ---   #125
      000D5CH     LINE      ---       ---     ---   #126
      000D5CH     LINE      ---       ---     ---   #128
      000D5EH     LINE      ---       ---     ---   #129
      000D62H     LINE      ---       ---     ---   #130
      000D64H     LINE      ---       ---     ---   #131
      000D68H     LINE      ---       ---     ---   #132
      000D6AH     LINE      ---       ---     ---   #133
      000D6EH     LINE      ---       ---     ---   #134
      000D70H     LINE      ---       ---     ---   #135
      000D74H     LINE      ---       ---     ---   #136
      000D76H     LINE      ---       ---     ---   #137
      000D78H     LINE      ---       ---     ---   #138
      000D7AH     LINE      ---       ---     ---   #139
      000D7EH     LINE      ---       ---     ---   #140
      000D80H     LINE      ---       ---     ---   #141
      000D84H     LINE      ---       ---     ---   #146
      000D88H     LINE      ---       ---     ---   #147
      000D8CH     LINE      ---       ---     ---   #148
      000D90H     LINE      ---       ---     ---   #149
      000D94H     LINE      ---       ---     ---   #152
      000D96H     LINE      ---       ---     ---   #153
      000D9AH     LINE      ---       ---     ---   #154
      000D9CH     LINE      ---       ---     ---   #155
      000DA0H     LINE      ---       ---     ---   #156
      000DA2H     LINE      ---       ---     ---   #157
      000DA6H     LINE      ---       ---     ---   #160
L166 LINKER/LOCATER V5.22                                                             06/28/2009  16:38:42  PAGE 30


      000DA8H     LINE      ---       ---     ---   #161
      000DAAH     LINE      ---       ---     ---   #162
      000DACH     LINE      ---       ---     ---   #163
      000DAEH     LINE      ---       ---     ---   #164
      000DB0H     LINE      ---       ---     ---   #165
      000DB2H     LINE      ---       ---     ---   #166
      000DB4H     LINE      ---       ---     ---   #167
      000DB6H     LINE      ---       ---     ---   #168
      000DB8H     LINE      ---       ---     ---   #170
      000DBAH     LINE      ---       ---     ---   #171
      000DBCH     LINE      ---       ---     ---   #172
      000DBEH     LINE      ---       ---     ---   #173
      000DC0H     LINE      ---       ---     ---   #174
      000DC2H     LINE      ---       ---     ---   #175
      000DC6H     LINE      ---       ---     ---   #177
      000DC8H     LINE      ---       ---     ---   #179
      000DCAH     LINE      ---       ---     ---   #181
      ---         BLOCKEND  LVL=0     ---     ---   

      000DCCH     BLOCK     LVL=0     00E0H   ---   tpl_switch_context_from_it
      000008H     SYMBOL    REG       ---     ---   old_context
      000009H     SYMBOL    REG       ---     ---   new_context
      000DCCH     BLOCK     LVL=1     00DEH   ---   
      000E3CH     SYMBOL    LABEL     ---     ---   NO_OLD_CONTEXT_TO_SAVE_IT
      ---         BLOCKEND  LVL=1     ---     ---   
      000DCCH     LINE      ---       ---     ---   #183
      000DCCH     LINE      ---       ---     ---   #184
      000DCCH     LINE      ---       ---     ---   #194
      000DCEH     LINE      ---       ---     ---   #195
      000DD0H     LINE      ---       ---     ---   #199
      000DD2H     LINE      ---       ---     ---   #200
      000DD6H     LINE      ---       ---     ---   #202
      000DDAH     LINE      ---       ---     ---   #204
      000DDEH     LINE      ---       ---     ---   #205
      000DE0H     LINE      ---       ---     ---   #206
      000DE2H     LINE      ---       ---     ---   #208
      000DE4H     LINE      ---       ---     ---   #209
      000DE8H     LINE      ---       ---     ---   #210
      000DEAH     LINE      ---       ---     ---   #211
      000DEEH     LINE      ---       ---     ---   #213
      000DF2H     LINE      ---       ---     ---   #214
      000DF4H     LINE      ---       ---     ---   #215
      000DF6H     LINE      ---       ---     ---   #217
      000DF8H     LINE      ---       ---     ---   #218
      000DFCH     LINE      ---       ---     ---   #220
      000DFEH     LINE      ---       ---     ---   #221
      000E02H     LINE      ---       ---     ---   #223
      000E04H     LINE      ---       ---     ---   #224
      000E08H     LINE      ---       ---     ---   #225
      000E0AH     LINE      ---       ---     ---   #226
      000E0CH     LINE      ---       ---     ---   #228
      000E0EH     LINE      ---       ---     ---   #229
      000E12H     LINE      ---       ---     ---   #230
      000E14H     LINE      ---       ---     ---   #231
      000E18H     LINE      ---       ---     ---   #233
      000E1CH     LINE      ---       ---     ---   #234
      000E1EH     LINE      ---       ---     ---   #235
L166 LINKER/LOCATER V5.22                                                             06/28/2009  16:38:42  PAGE 31


      000E20H     LINE      ---       ---     ---   #237
      000E24H     LINE      ---       ---     ---   #238
      000E26H     LINE      ---       ---     ---   #239
      000E28H     LINE      ---       ---     ---   #241
      000E2CH     LINE      ---       ---     ---   #242
      000E2EH     LINE      ---       ---     ---   #243
      000E30H     LINE      ---       ---     ---   #245
      000E34H     LINE      ---       ---     ---   #246
      000E36H     LINE      ---       ---     ---   #247
      000E38H     LINE      ---       ---     ---   #249
      000E3AH     LINE      ---       ---     ---   #250
      000E3CH     LINE      ---       ---     ---   #251
      000E3CH     LINE      ---       ---     ---   #253
      000E3EH     LINE      ---       ---     ---   #254
      000E42H     LINE      ---       ---     ---   #255
      000E44H     LINE      ---       ---     ---   #256
      000E48H     LINE      ---       ---     ---   #257
      000E4AH     LINE      ---       ---     ---   #258
      000E4EH     LINE      ---       ---     ---   #259
      000E50H     LINE      ---       ---     ---   #260
      000E54H     LINE      ---       ---     ---   #261
      000E56H     LINE      ---       ---     ---   #262
      000E58H     LINE      ---       ---     ---   #263
      000E5AH     LINE      ---       ---     ---   #264
      000E5EH     LINE      ---       ---     ---   #265
      000E60H     LINE      ---       ---     ---   #266
      000E64H     LINE      ---       ---     ---   #271
      000E68H     LINE      ---       ---     ---   #272
      000E6CH     LINE      ---       ---     ---   #273
      000E70H     LINE      ---       ---     ---   #274
      000E74H     LINE      ---       ---     ---   #277
      000E76H     LINE      ---       ---     ---   #278
      000E7AH     LINE      ---       ---     ---   #279
      000E7CH     LINE      ---       ---     ---   #280
      000E80H     LINE      ---       ---     ---   #281
      000E82H     LINE      ---       ---     ---   #282
      000E86H     LINE      ---       ---     ---   #285
      000E88H     LINE      ---       ---     ---   #286
      000E8AH     LINE      ---       ---     ---   #287
      000E8CH     LINE      ---       ---     ---   #288
      000E8EH     LINE      ---       ---     ---   #289
      000E90H     LINE      ---       ---     ---   #290
      000E92H     LINE      ---       ---     ---   #291
      000E94H     LINE      ---       ---     ---   #292
      000E96H     LINE      ---       ---     ---   #293
      000E98H     LINE      ---       ---     ---   #295
      000E9AH     LINE      ---       ---     ---   #296
      000E9CH     LINE      ---       ---     ---   #297
      000E9EH     LINE      ---       ---     ---   #298
      000EA0H     LINE      ---       ---     ---   #299
      000EA2H     LINE      ---       ---     ---   #300
      000EA6H     LINE      ---       ---     ---   #302
      000EA8H     LINE      ---       ---     ---   #304
      000EAAH     LINE      ---       ---     ---   #306
      ---         BLOCKEND  LVL=0     ---     ---   

      000EACH     BLOCK     LVL=0     0094H   ---   tpl_init_context
L166 LINKER/LOCATER V5.22                                                             06/28/2009  16:38:42  PAGE 32


      000008H     SYMBOL    REG       ---     ---   task
      000EACH     BLOCK     LVL=1     0092H   ---   
      000006H     SYMBOL    REG       ---     ---   objId
      000009H     SYMBOL    REG       ---     ---   static_desc
      000008H     SYMBOL    REG       ---     ---   ic
      ---         BLOCKEND  LVL=1     ---     ---   
      000EACH     LINE      ---       ---     ---   #314
      000EACH     LINE      ---       ---     ---   #315
      000EACH     LINE      ---       ---     ---   #320
      000EB0H     LINE      ---       ---     ---   #323
      000EB4H     LINE      ---       ---     ---   #326
      000EB8H     LINE      ---       ---     ---   #327
      000EC2H     LINE      ---       ---     ---   #330
      000ED0H     LINE      ---       ---     ---   #334
      000EDEH     LINE      ---       ---     ---   #335
      000EE6H     LINE      ---       ---     ---   #339
      000EF0H     LINE      ---       ---     ---   #341
      000EF8H     LINE      ---       ---     ---   #342
      000EFEH     LINE      ---       ---     ---   #343
      000F06H     LINE      ---       ---     ---   #346
      000F14H     LINE      ---       ---     ---   #348
      000F1AH     LINE      ---       ---     ---   #349
      000F1EH     LINE      ---       ---     ---   #352
      000F26H     LINE      ---       ---     ---   #356
      000F2EH     LINE      ---       ---     ---   #357
      000F36H     LINE      ---       ---     ---   #358
      000F3EH     LINE      ---       ---     ---   #359
      ---         BLOCKEND  LVL=0     ---     ---   

      000F40H     BLOCK     LVL=0     0004H   ---   tpl_get_task_lock
      000F40H     LINE      ---       ---     ---   #363
      000F40H     LINE      ---       ---     ---   #365
      000F42H     LINE      ---       ---     ---   #366
      ---         BLOCKEND  LVL=0     ---     ---   

      000F44H     BLOCK     LVL=0     0004H   ---   tpl_release_task_lock
      000F44H     LINE      ---       ---     ---   #368
      000F44H     LINE      ---       ---     ---   #370
      000F46H     LINE      ---       ---     ---   #371
      ---         BLOCKEND  LVL=0     ---     ---   

      000F48H     BLOCK     LVL=0     0006H   ---   tpl_init_machine
      000F48H     LINE      ---       ---     ---   #377
      000F48H     LINE      ---       ---     ---   #380
      000F4CH     LINE      ---       ---     ---   #382
      ---         BLOCKEND  LVL=0     ---     ---   
      00168AH     PUBLIC    LABEL     ---     ---   tpl_init_tick_timer
      001698H     PUBLIC    LABEL     ---     ---   tpl_call_counter_tick
      0016B8H     PUBLIC    LABEL     ---     ---   tpl_timer6_tick
      005200H     PUBLIC    VAR       ---     ---   static_descriptor_of_task_Controler_Voiture
      005214H     PUBLIC    VAR       ---     ---   descriptor_of_counter_General_counter
      00522CH     PUBLIC    VAR       ---     ---   tpl_ready_list
      005238H     PUBLIC    VAR       ---     ---   tpl_task_table
      00523CH     PUBLIC    VAR       ---     ---   tpl_priority_2_fifo
      005240H     PUBLIC    VAR       ---     ---   tpl_priority_1_fifo
      005242H     PUBLIC    VAR       ---     ---   tpl_priority_0_fifo
      005244H     PUBLIC    VAR       ---     ---   stat_descriptor_of_alarm_Active_Tache2
L166 LINKER/LOCATER V5.22                                                             06/28/2009  16:38:42  PAGE 33


      00524AH     PUBLIC    VAR       ---     ---   stat_descriptor_of_alarm_Active_Tache1
      005250H     PUBLIC    VAR       ---     ---   task_act_of_Active_Tache2
      005254H     PUBLIC    VAR       ---     ---   task_act_of_Active_Tache1
      005258H     PUBLIC    VAR       ---     ---   usr_stack_zone_of_Generer_Trajectoire
      005358H     PUBLIC    VAR       ---     ---   tpl_alarm_table
      00535CH     PUBLIC    VAR       ---     ---   descriptor_of_alarm_Active_Tache2
      00536CH     PUBLIC    VAR       ---     ---   descriptor_of_alarm_Active_Tache1
      00537CH     PUBLIC    VAR       ---     ---   integer_context_of_Generer_Trajectoire
      00539AH     PUBLIC    VAR       ---     ---   descriptor_of_task_Generer_Trajectoire
      0053A4H     PUBLIC    VAR       ---     ---   tpl_fifo_rw
      0053AAH     PUBLIC    VAR       ---     ---   usr_stack_zone_of_Controler_Voiture
      0054AAH     PUBLIC    VAR       ---     ---   static_descriptor_of_task_Generer_Trajectoire
      0054BEH     PUBLIC    VAR       ---     ---   integer_context_of_Controler_Voiture
      0054DCH     PUBLIC    VAR       ---     ---   descriptor_of_task_Controler_Voiture
      00F200H     PUBLIC    VAR       ---     ---   sys_stack_zone_of_Generer_Trajectoire
      00F300H     PUBLIC    VAR       ---     ---   sys_stack_zone_of_Controler_Voiture

      00168AH     BLOCK     LVL=0     000EH   ---   tpl_init_tick_timer
      00168AH     LINE      ---       ---     ---   #214
      00168AH     LINE      ---       ---     ---   #221
      00168EH     LINE      ---       ---     ---   #226
      001692H     LINE      ---       ---     ---   #236
      001696H     LINE      ---       ---     ---   #237
      ---         BLOCKEND  LVL=0     ---     ---   

      001698H     BLOCK     LVL=0     0020H   ---   tpl_call_counter_tick
      00169AH     BLOCK     LVL=1     001AH   ---   
      00004DH     SYMBOL    REG       ---     ---   need_rescheduling
      ---         BLOCKEND  LVL=1     ---     ---   
      001698H     LINE      ---       ---     ---   #241
      00169AH     LINE      ---       ---     ---   #242
      00169AH     LINE      ---       ---     ---   #243
      00169CH     LINE      ---       ---     ---   #244
      0016A6H     LINE      ---       ---     ---   #246
      0016AEH     LINE      ---       ---     ---   #247
      0016B4H     LINE      ---       ---     ---   #248
      ---         BLOCKEND  LVL=0     ---     ---   

      0016B8H     BLOCK     LVL=0     0024H   ---   tpl_timer6_tick
      0016B8H     LINE      ---       ---     ---   #256
      0016B8H     LINE      ---       ---     ---   #259
      0016BAH     LINE      ---       ---     ---   #260
      0016BEH     LINE      ---       ---     ---   #261
      0016C0H     LINE      ---       ---     ---   #262
      0016C4H     LINE      ---       ---     ---   #263
      0016C6H     LINE      ---       ---     ---   #264
      0016CAH     LINE      ---       ---     ---   #265
      0016CCH     LINE      ---       ---     ---   #266
      0016CEH     LINE      ---       ---     ---   #267
      0016D0H     LINE      ---       ---     ---   #268
      0016D2H     LINE      ---       ---     ---   #272
      0016D4H     LINE      ---       ---     ---   #277
      0016D4H     LINE      ---       ---     ---   #279
      0016D6H     LINE      ---       ---     ---   #280
      0016D8H     LINE      ---       ---     ---   #281
      0016DAH     LINE      ---       ---     ---   #283
      ---         BLOCKEND  LVL=0     ---     ---   
L166 LINKER/LOCATER V5.22                                                             06/28/2009  16:38:42  PAGE 34


      00007EH     GLOBAL    LABEL     ---     ---   main
      000034H     PUBLIC    LABEL     ---     ---   function_of_task_Generer_Trajectoire
      00002AH     PUBLIC    LABEL     ---     ---   InitApp
      00003EH     PUBLIC    LABEL     ---     ---   function_of_task_Controler_Voiture
      00554CH     PUBLIC    VAR       ---     ---   Y

      00002AH     BLOCK     LVL=0     000AH   ---   InitApp
      00002AH     LINE      ---       ---     ---   #19
      00002AH     LINE      ---       ---     ---   #21
      00002EH     LINE      ---       ---     ---   #22
      000032H     LINE      ---       ---     ---   #23
      ---         BLOCKEND  LVL=0     ---     ---   

      000034H     BLOCK     LVL=0     000AH   ---   function_of_task_Generer_Trajectoire
      000034H     LINE      ---       ---     ---   #26
      000034H     LINE      ---       ---     ---   #28
      000038H     LINE      ---       ---     ---   #31
      000038H     LINE      ---       ---     ---   #32
      00003CH     LINE      ---       ---     ---   #34
      ---         BLOCKEND  LVL=0     ---     ---   

      00003EH     BLOCK     LVL=0     0040H   ---   function_of_task_Controler_Voiture
      000042H     BLOCK     LVL=1     0036H   ---   
      00000DH     SYMBOL    REG       ---     ---   pos
      000000H     SYMBOL    AUTO      ---     ---   cons
      ---         BLOCKEND  LVL=1     ---     ---   
      00003EH     LINE      ---       ---     ---   #36
      000042H     LINE      ---       ---     ---   #37
      000042H     LINE      ---       ---     ---   #41
      000048H     LINE      ---       ---     ---   #42
      00005CH     LINE      ---       ---     ---   #43
      000074H     LINE      ---       ---     ---   #44
      000078H     LINE      ---       ---     ---   #46
      ---         BLOCKEND  LVL=0     ---     ---   

      00007EH     BLOCK     LVL=0     0016H   ---   main
      00007EH     LINE      ---       ---     ---   #48
      00007EH     LINE      ---       ---     ---   #50
      000080H     LINE      ---       ---     ---   #51
      000084H     LINE      ---       ---     ---   #52
      00008CH     LINE      ---       ---     ---   #53
      000092H     LINE      ---       ---     ---   #54
      ---         BLOCKEND  LVL=0     ---     ---   
      000696H     PUBLIC    LABEL     ---     ---   ?C_FPADD
      0006D4H     PUBLIC    LABEL     ---     ---   ?C_FPXSUB
      000692H     PUBLIC    LABEL     ---     ---   ?C_FPSUB

      000692H     BLOCK     LVL=0     00E8H   ---   ?C_FPSUB
      ---         BLOCKEND  LVL=0     ---     ---   
      00077AH     PUBLIC    LABEL     ---     ---   ?C_FPMUL

      00077AH     BLOCK     LVL=0     0094H   ---   ?C_FPMUL
      ---         BLOCKEND  LVL=0     ---     ---   
      00080EH     PUBLIC    LABEL     ---     ---   ?C_FPDIV

      00080EH     BLOCK     LVL=0     00C8H   ---   ?C_FPDIV
      ---         BLOCKEND  LVL=0     ---     ---   
L166 LINKER/LOCATER V5.22                                                             06/28/2009  16:38:42  PAGE 35


      0008D6H     PUBLIC    LABEL     ---     ---   ?C_CASTF

      0008D6H     BLOCK     LVL=0     005CH   ---   ?C_CASTF
      ---         BLOCKEND  LVL=0     ---     ---   
      000932H     PUBLIC    LABEL     ---     ---   ?C_FCAST

      000932H     BLOCK     LVL=0     0046H   ---   ?C_FCAST
      ---         BLOCKEND  LVL=0     ---     ---   
      000978H     PUBLIC    LABEL     ---     ---   ?C_FPCMP

      000978H     BLOCK     LVL=0     0082H   ---   ?C_FPCMP
      ---         BLOCKEND  LVL=0     ---     ---   
      0009FAH     PUBLIC    LABEL     ---     ---   ?C_FPGETOPN
      000A20H     PUBLIC    LABEL     ---     ---   ?C_FPNANRSL
      000A28H     PUBLIC    LABEL     ---     ---   ?C_FPINFRSL
      000A4AH     PUBLIC    LABEL     ---     ---   ?C_FPNOERR
      000A40H     PUBLIC    LABEL     ---     ---   ?C_FPRSLNR
      000A34H     PUBLIC    LABEL     ---     ---   ?C_FPOPRSL
      000A58H     PUBLIC    LABEL     ---     ---   ?C_FPZERRSL
      000A58H     PUBLIC    LABEL     ---     ---   ?C_FPUNFRS

      0009FAH     BLOCK     LVL=0     0026H   ---   ?C_FPGETOPN
      ---         BLOCKEND  LVL=0     ---     ---   

      000A20H     BLOCK     LVL=0     0008H   ---   ?C_FPNANRSL
      ---         BLOCKEND  LVL=0     ---     ---   

      000A28H     BLOCK     LVL=0     000CH   ---   ?C_FPINFRSL
      ---         BLOCKEND  LVL=0     ---     ---   

      000A34H     BLOCK     LVL=0     0022H   ---   ?C_FPOPRSL
      ---         BLOCKEND  LVL=0     ---     ---   

      000A56H     BLOCK     LVL=0     0002H   ---   EXIT
      ---         BLOCKEND  LVL=0     ---     ---   

      000A58H     BLOCK     LVL=0     0006H   ---   ?C_FPZERRSL
      ---         BLOCKEND  LVL=0     ---     ---   
      000015H     PUBLIC    CONST     ---     ---   ?C_FPPRECISION
      000033H     PUBLIC    CONST     ---     ---   ?C_DPPRECISION
      0001DAH     PUBLIC    VAR       ---     ---   ?C_ENDINIT



FUNCTION REGISTER MASKS


FUNCTION . . . . . . . . . . . . . . REG MASK
=============================================


******************************************************************************
* RESTRICTED VERSION WITH 1000H BYTE CODE SIZE LIMIT; USED: 1002H BYTE (100%) *
******************************************************************************

Program Size: data=2000(near=2000) const=358(near=0) code=5616
L166 RUN COMPLETE.  0 WARNING(S),  0 ERROR(S)
L166 LINKER/LOCATER V5.22                                                             06/28/2009  16:38:42  PAGE 36



*** FATAL ERROR L250: CODE SIZE LIMIT IN RESTRICTED VERSION EXCEEDED
